BL51 BANKED LINKER/LOCATER V6.22.2.0                                                    08/13/2022  23:50:26  PAGE 1


BL51 BANKED LINKER/LOCATER V6.22.2.0, INVOKED BY:
D:\KEIL\C51\BIN\BL51.EXE ..\Output\Main.obj, ..\Output\hSch51.obj, ..\Output\Delay.obj, ..\Output\Download.obj, ..\Outpu
>> t\LCD1602_Clock.obj, ..\Output\Timer.obj, ..\Output\LCD1602_Menu.obj, ..\Output\LCD1602_Show.obj, ..\Output\ESP8266.o
>> bj, ..\Output\UART.obj, ..\Output\EEPROM_Application.obj, ..\Output\LCD1602.obj, ..\Output\Relay.obj, ..\Output\EEPRO
>> M.obj, ..\Output\EC11.obj, ..\Output\Buzzer.obj TO ..\Output\Wireless_Controller PRINT (.\Listings\Wireless_Controlle
>> r.m51) RAMSIZE (256)


MEMORY MODEL: SMALL


INPUT MODULES INCLUDED:
  ..\Output\Main.obj (MAIN)
  ..\Output\hSch51.obj (HSCH51)
  ..\Output\Delay.obj (DELAY)
  ..\Output\Download.obj (DOWNLOAD)
  ..\Output\LCD1602_Clock.obj (LCD1602_CLOCK)
  ..\Output\Timer.obj (TIMER)
  ..\Output\LCD1602_Menu.obj (LCD1602_MENU)
  ..\Output\LCD1602_Show.obj (LCD1602_SHOW)
  ..\Output\ESP8266.obj (ESP8266)
  ..\Output\UART.obj (UART)
  ..\Output\EEPROM_Application.obj (EEPROM_APPLICATION)
  ..\Output\LCD1602.obj (LCD1602)
  ..\Output\Relay.obj (RELAY)
  ..\Output\EEPROM.obj (EEPROM)
  ..\Output\EC11.obj (EC11)
  ..\Output\Buzzer.obj (BUZZER)
  D:\KEIL\C51\LIB\C51S.LIB (?C_STARTUP)
  D:\KEIL\C51\LIB\C51S.LIB (?C?SCDIV)
  D:\KEIL\C51\LIB\C51S.LIB (?C?CLDPTR)
  D:\KEIL\C51\LIB\C51S.LIB (?C?CLDOPTR)
  D:\KEIL\C51\LIB\C51S.LIB (?C?CSTOPTR)
  D:\KEIL\C51\LIB\C51S.LIB (?C?IMUL)
  D:\KEIL\C51\LIB\C51S.LIB (?C?SIDIV)
  D:\KEIL\C51\LIB\C51S.LIB (?C?LMUL)
  D:\KEIL\C51\LIB\C51S.LIB (?C?SLDIV)
  D:\KEIL\C51\LIB\C51S.LIB (?C?SLCMP)
  D:\KEIL\C51\LIB\C51S.LIB (?C?ULCMP)
  D:\KEIL\C51\LIB\C51S.LIB (?C?SLSHR)
  D:\KEIL\C51\LIB\C51S.LIB (?C?LSHL)
  D:\KEIL\C51\LIB\C51S.LIB (?C?LSTXDATA)
  D:\KEIL\C51\LIB\C51S.LIB (?C?LSTKXDATA)
  D:\KEIL\C51\LIB\C51S.LIB (?C?ICALL)
  D:\KEIL\C51\LIB\C51S.LIB (?C_INIT)
  D:\KEIL\C51\LIB\C51S.LIB (?C?UIDIV)
  D:\KEIL\C51\LIB\C51S.LIB (?C?ULDIV)


LINK MAP OF MODULE:  ..\Output\Wireless_Controller (MAIN)


            TYPE    BASE      LENGTH    RELOCATION   SEGMENT NAME
            -----------------------------------------------------

            * * * * * * *   D A T A   M E M O R Y   * * * * * * *
            REG     0000H     0008H     ABSOLUTE     "REG BANK 0"
            DATA    0008H     0014H     UNIT         ?DT?LCD1602_MENU
BL51 BANKED LINKER/LOCATER V6.22.2.0                                                  08/13/2022  23:50:26  PAGE 2


            DATA    001CH     0002H     UNIT         ?DT?RELAY
            DATA    001EH     0001H     UNIT         ?DT?LCD1602_SHOW
            DATA    001FH     0001H     UNIT         ?DT?EEPROM_APPLICATION
            DATA    0020H     0005H     BIT_ADDR     ?BA?RELAY
            BIT     0025H.0   0006H.0   UNIT         ?BI?RELAY
            BIT     002BH.0   0000H.2   UNIT         ?BI?LCD1602_CLOCK
            BIT     002BH.2   0000H.2   UNIT         ?BI?LCD1602_MENU
            BIT     002BH.4   0000H.2   UNIT         ?BI?EC11
            BIT     002BH.6   0000H.1   UNIT         _BIT_GROUP_
                    002BH.7   0000H.1                *** GAP ***
            DATA    002CH     000CH     UNIT         _DATA_GROUP_
            DATA    0038H     0009H     UNIT         ?DT?LCD1602_CLOCK
            DATA    0041H     0009H     UNIT         ?DT?ESP8266
            DATA    004AH     0007H     UNIT         ?DT?EC11
            DATA    0051H     0001H     UNIT         ?DT?BUZZER
            IDATA   0052H     0058H     UNIT         ?ID?HSCH51
            IDATA   00AAH     0010H     UNIT         ?ID?LCD1602_MENU
            IDATA   00BAH     0001H     UNIT         ?STACK

            * * * * * * *  X D A T A   M E M O R Y  * * * * * * *
            XDATA   0000H     0248H     UNIT         ?XD?ESP8266
            XDATA   0248H     00DBH     UNIT         ?XD?LCD1602_MENU
            XDATA   0323H     00A6H     UNIT         ?XD?RELAY
            XDATA   03C9H     000DH     UNIT         ?XD?LCD1602_CLOCK
            XDATA   03D6H     0004H     UNIT         ?XD?EEPROM_APPLICATION

            * * * * * * *   C O D E   M E M O R Y   * * * * * * *
            CODE    0000H     0003H     ABSOLUTE     
            CODE    0003H     0008H     UNIT         ?PR?RETURN_2_19?LCD1602_MENU
            CODE    000BH     0003H     ABSOLUTE     
            CODE    000EH     000DH     UNIT         ?PR?DELAY50MS?DELAY
            CODE    001BH     0003H     ABSOLUTE     
            CODE    001EH     0004H     UNIT         ?PR?RETURN_2_12?LCD1602_MENU
                    0022H     0001H                  *** GAP ***
            CODE    0023H     0003H     ABSOLUTE     
            CODE    0026H     1ADAH     UNIT         ?PR?TASK_OFFTIME_SET_3_49?LCD1602_MENU
            CODE    1B00H     0E75H     UNIT         ?PR?TASK_OVERTIME_SET_3_46?LCD1602_MENU
            CODE    2975H     0E51H     UNIT         ?PR?TASK_ONTIME_SET_3_48?LCD1602_MENU
            CODE    37C6H     0D0EH     UNIT         ?PR?EEPROM_READ_SECTOR_1?EEPROM_APPLICATION
            CODE    44D4H     08EAH     UNIT         ?PR?LCD1602_MENU
            CODE    4DBEH     0811H     UNIT         ?PR?UART_INTERRUPT?ESP8266
            CODE    55CFH     07EBH     UNIT         ?PR?ESP8266_STA_AP_MODE?ESP8266
            CODE    5DBAH     0727H     UNIT         ?PR?EEPROM_PROGRAM_SECTOR_1?EEPROM_APPLICATION
            CODE    64E1H     06F5H     UNIT         ?CO?ESP8266
            CODE    6BD6H     0647H     UNIT         ?CO?LCD1602_MENU
            CODE    721DH     051BH     UNIT         ?C_INITSEG
            CODE    7738H     0386H     UNIT         ?PR?TASK_INPUT_UPDATE?RELAY
            CODE    7ABEH     02FFH     UNIT         ?PR?TASK1_OUTPUT_UPDATE?RELAY
            CODE    7DBDH     02F2H     UNIT         ?PR?TASK2_OUTPUT_UPDATE?RELAY
            CODE    80AFH     02F2H     UNIT         ?PR?TASK3_OUTPUT_UPDATE?RELAY
            CODE    83A1H     02F2H     UNIT         ?PR?TASK4_OUTPUT_UPDATE?RELAY
            CODE    8693H     02E5H     UNIT         ?PR?TASK5_OUTPUT_UPDATE?RELAY
            CODE    8978H     02E5H     UNIT         ?PR?TASK6_OUTPUT_UPDATE?RELAY
            CODE    8C5DH     02D5H     UNIT         ?C?LIB_CODE
            CODE    8F32H     02D4H     UNIT         ?PR?_LCD1602_NUMBER?LCD1602_CLOCK
            CODE    9206H     0284H     UNIT         ?PR?TASK_STARTTIME_SET_3_44?LCD1602_MENU
            CODE    948AH     0284H     UNIT         ?PR?TASK_ENDTIME_SET_3_45?LCD1602_MENU
BL51 BANKED LINKER/LOCATER V6.22.2.0                                                  08/13/2022  23:50:26  PAGE 3


            CODE    970EH     0226H     UNIT         ?PR?TIME_SET_MANUAL_SET_2_37?LCD1602_MENU
            CODE    9934H     0210H     UNIT         ?PR?SYSTEM_DATA_RESET?EEPROM_APPLICATION
            CODE    9B44H     01C4H     UNIT         ?PR?TCP_PORT_SET_2_40?LCD1602_MENU
            CODE    9D08H     01A7H     UNIT         ?PR?EEPROM_APPLICATION
            CODE    9EAFH     0177H     UNIT         ?PR?LCD1602_TIME_UPDATE?LCD1602_CLOCK
            CODE    A026H     0156H     UNIT         ?PR?LCD1602_MENU_UPDATE?LCD1602_MENU
            CODE    A17CH     0136H     UNIT         ?PR?TASK_OVERTIME_MODE_SET_3_47?LCD1602_MENU
            CODE    A2B2H     00F9H     UNIT         ?PR?PIN36_SET_2_34?LCD1602_MENU
            CODE    A3ABH     00F7H     UNIT         ?PR?EC11_SCAN?EC11
            CODE    A4A2H     00F6H     UNIT         ?PR?PIN37_SET_2_35?LCD1602_MENU
            CODE    A598H     00F1H     UNIT         ?PR?PIN20_SET_2_28?LCD1602_MENU
            CODE    A689H     00F1H     UNIT         ?PR?PIN35_SET_2_33?LCD1602_MENU
            CODE    A77AH     00EFH     UNIT         ?PR?PIN10_SET_2_20?LCD1602_MENU
            CODE    A869H     00EFH     UNIT         ?PR?PIN11_SET_2_21?LCD1602_MENU
            CODE    A958H     00EFH     UNIT         ?PR?PIN12_SET_2_22?LCD1602_MENU
            CODE    AA47H     00EFH     UNIT         ?PR?PIN13_SET_2_23?LCD1602_MENU
            CODE    AB36H     00EFH     UNIT         ?PR?PIN14_SET_2_24?LCD1602_MENU
            CODE    AC25H     00EFH     UNIT         ?PR?PIN15_SET_2_25?LCD1602_MENU
            CODE    AD14H     00EFH     UNIT         ?PR?PIN16_SET_2_26?LCD1602_MENU
            CODE    AE03H     00EFH     UNIT         ?PR?PIN17_SET_2_27?LCD1602_MENU
            CODE    AEF2H     00EFH     UNIT         ?PR?PIN21_SET_2_29?LCD1602_MENU
            CODE    AFE1H     00EFH     UNIT         ?PR?PIN22_SET_2_30?LCD1602_MENU
            CODE    B0D0H     00EFH     UNIT         ?PR?PIN23_SET_2_31?LCD1602_MENU
            CODE    B1BFH     00EFH     UNIT         ?PR?PIN24_SET_2_32?LCD1602_MENU
            CODE    B2AEH     00D7H     UNIT         ?PR?MAIN?MAIN
            CODE    B385H     00C6H     UNIT         ?PR?HSCH_UPDATE?HSCH51
            CODE    B44BH     00B4H     UNIT         ?PR?LCD1602_CLOCK_UPDATE?LCD1602_CLOCK
            CODE    B4FFH     00AAH     UNIT         ?PR?RELAY
            CODE    B5A9H     00A3H     UNIT         ?PR?ESP8266
            CODE    B64CH     0093H     UNIT         ?PR?LCD1602_CLOCK
            CODE    B6DFH     008CH     UNIT         ?C_C51STARTUP
            CODE    B76BH     0085H     UNIT         ?CO?EEPROM_APPLICATION
            CODE    B7F0H     0084H     UNIT         ?PR?SYSTEM_RESET_1_51?LCD1602_MENU
            CODE    B874H     006FH     UNIT         ?PR?LCD1602_SHOW_CURRENT_PAGE?LCD1602_MENU
            CODE    B8E3H     006EH     UNIT         ?PR?_LCD1602_SHOW_STRING?LCD1602
            CODE    B951H     005BH     UNIT         ?PR?_HSCH_ADD_TASK?HSCH51
            CODE    B9ACH     0055H     UNIT         ?PR?_LCD1602_CUSTOM_CHAR?LCD1602
            CODE    BA01H     004FH     UNIT         ?PR?BUZZER_KEY_BEEP?BUZZER
            CODE    BA50H     004CH     UNIT         ?PR?HSCH_DISPATCH_TASKS?HSCH51
            CODE    BA9CH     0046H     UNIT         ?PR?LCD1602_DATETIME_UPDATE?LCD1602_CLOCK
            CODE    BAE2H     0044H     UNIT         ?C?LDIV
            CODE    BB26H     0041H     UNIT         ?CO?LCD1602_CLOCK
            CODE    BB67H     003CH     UNIT         ?PR?STA_IP_2_41?LCD1602_MENU
            CODE    BBA3H     003CH     UNIT         ?PR?AP_IP_2_42?LCD1602_MENU
            CODE    BBDFH     0036H     UNIT         ?PR?HSCH51
            CODE    BC15H     0031H     UNIT         ?PR?TASK1_CTRL_2_6?LCD1602_MENU
            CODE    BC46H     0031H     UNIT         ?PR?TASK2_CTRL_2_7?LCD1602_MENU
            CODE    BC77H     0031H     UNIT         ?PR?TASK3_CTRL_2_8?LCD1602_MENU
            CODE    BCA8H     0031H     UNIT         ?PR?TASK4_CTRL_2_9?LCD1602_MENU
            CODE    BCD9H     0031H     UNIT         ?PR?TASK5_CTRL_2_10?LCD1602_MENU
            CODE    BD0AH     0031H     UNIT         ?PR?TASK6_CTRL_2_11?LCD1602_MENU
            CODE    BD3BH     002CH     UNIT         ?PR?_HSCH_DELETE_TASK?HSCH51
            CODE    BD67H     0027H     UNIT         ?PR?HSCH_INIT_T0?HSCH51
            CODE    BD8EH     0026H     UNIT         ?PR?_ARRYCLEAR?ESP8266
            CODE    BDB4H     0024H     UNIT         ?PR?LCD1602_INIT?LCD1602
            CODE    BDD8H     0022H     UNIT         ?PR?TIME_SET_AUTO_SET_2_38?LCD1602_MENU
            CODE    BDFAH     0019H     UNIT         ?PR?TASK3_SET_2_15?LCD1602_MENU
BL51 BANKED LINKER/LOCATER V6.22.2.0                                                  08/13/2022  23:50:26  PAGE 4


            CODE    BE13H     0019H     UNIT         ?PR?TASK4_SET_2_16?LCD1602_MENU
            CODE    BE2CH     0019H     UNIT         ?PR?TASK5_SET_2_17?LCD1602_MENU
            CODE    BE45H     0019H     UNIT         ?PR?TASK6_SET_2_18?LCD1602_MENU
            CODE    BE5EH     0018H     UNIT         ?PR?TASK2_SET_2_14?LCD1602_MENU
            CODE    BE76H     0018H     UNIT         ?PR?LCD1602_BUSY_CHECK?LCD1602
            CODE    BE8EH     0017H     UNIT         ?PR?TASK1_SET_2_13?LCD1602_MENU
            CODE    BEA5H     0017H     UNIT         ?PR?EC11_INIT?EC11
            CODE    BEBCH     0016H     UNIT         ?PR?TIMER1INIT?TIMER
            CODE    BED2H     0016H     UNIT         ?PR?LCD1602_SHOW_UPDATE?LCD1602_SHOW
            CODE    BEE8H     0016H     UNIT         ?PR?_LCD1602_WRITE_CMD?LCD1602
            CODE    BEFEH     0016H     UNIT         ?PR?_LCD1602_WRITE_DATA?LCD1602
            CODE    BF14H     0015H     UNIT         ?PR?UARTINIT?UART
            CODE    BF29H     0013H     UNIT         ?PR?TASKS_CTRL_1_0?LCD1602_MENU
            CODE    BF3CH     0013H     UNIT         ?PR?TASKS_SET_1_1?LCD1602_MENU
            CODE    BF4FH     0013H     UNIT         ?PR?PORT_SET_1_2?LCD1602_MENU
            CODE    BF62H     0013H     UNIT         ?PR?TIME_SET_1_3?LCD1602_MENU
            CODE    BF75H     0013H     UNIT         ?PR?WIFI_SET_1_4?LCD1602_MENU
            CODE    BF88H     0013H     UNIT         ?PR?RETURN_2_43?LCD1602_MENU
            CODE    BF9BH     0013H     UNIT         ?PR?_UART_SEND_STRING?UART
            CODE    BFAEH     0013H     UNIT         ?PR?_IAPPROGRAMBYTE?EEPROM
            CODE    BFC1H     0010H     UNIT         ?CO?LCD1602
            CODE    BFD1H     000FH     UNIT         ?PR?_IAPREADBYTE?EEPROM
            CODE    BFE0H     000EH     UNIT         ?PR?_UART_SEND_CHAR?UART
            CODE    BFEEH     000DH     UNIT         ?PR?DELAY100MS?DELAY
            CODE    BFFBH     000DH     UNIT         ?PR?DELAY1000MS?DELAY
            CODE    C008H     000DH     UNIT         ?PR?TIMER1_RELOAD?TIMER
            CODE    C015H     000DH     UNIT         ?PR?IAPIDLE?EEPROM
            CODE    C022H     000DH     UNIT         ?PR?_IAPERASESECTOR?EEPROM
            CODE    C02FH     000CH     UNIT         ?PR?_ESP8266_SEND_STRING?ESP8266
            CODE    C03BH     000BH     UNIT         ?PR?DELAY5MS?DELAY
            CODE    C046H     000BH     UNIT         ?PR?DELAY15MS?DELAY
            CODE    C051H     000BH     UNIT         ?PR?LCD1602
            CODE    C05CH     000BH     UNIT         ?PR?EEPROM
            CODE    C067H     0008H     UNIT         ?PR?BUZZER_INIT?BUZZER
            CODE    C06FH     0007H     UNIT         ?PR?RETURN_1_5?LCD1602_MENU
            CODE    C076H     0007H     UNIT         ?PR?RETURN_3_50?LCD1602_MENU
            CODE    C07DH     0004H     UNIT         ?PR?RETURN_2_36?LCD1602_MENU
            CODE    C081H     0004H     UNIT         ?PR?RETURN_2_39?LCD1602_MENU
            CODE    C085H     0003H     UNIT         ?PR?HSCH_START?HSCH51
            CODE    C088H     0003H     UNIT         ?PR?HSCH_RUN?HSCH51
            CODE    C08BH     0003H     UNIT         ?PR?HSCH_PAUSE?HSCH51
            CODE    C08EH     0003H     UNIT         ?PR?BUZZER_OPEN?BUZZER



OVERLAY MAP OF MODULE:   ..\Output\Wireless_Controller (MAIN)


SEGMENT                                             BIT_GROUP          DATA_GROUP 
  +--> CALLED SEGMENT                            START    LENGTH     START    LENGTH
------------------------------------------------------------------------------------
?PR?HSCH_UPDATE?HSCH51                           -----    -----      002CH    0001H
  +--> ?PR?HSCH51

*** NEW ROOT ***************************************************

?PR?UART_INTERRUPT?ESP8266                       -----    -----      -----    -----
BL51 BANKED LINKER/LOCATER V6.22.2.0                                                  08/13/2022  23:50:26  PAGE 5


  +--> ?PR?ESP8266
  +--> ?PR?EEPROM_PROGRAM_SECTOR_1?EEPROM_AP...
  +--> ?PR?_ARRYCLEAR?ESP8266

?PR?EEPROM_PROGRAM_SECTOR_1?EEPROM_AP...         -----    -----      -----    -----
  +--> ?PR?_IAPERASESECTOR?EEPROM
  +--> ?PR?EEPROM_APPLICATION
  +--> ?PR?_IAPPROGRAMBYTE?EEPROM

?PR?_IAPERASESECTOR?EEPROM                       -----    -----      -----    -----
  +--> ?PR?EEPROM
  +--> ?PR?IAPIDLE?EEPROM

?PR?_IAPPROGRAMBYTE?EEPROM                       -----    -----      -----    -----
  +--> ?PR?EEPROM
  +--> ?PR?IAPIDLE?EEPROM

?PR?_ARRYCLEAR?ESP8266                           -----    -----      002DH    0003H

*** NEW ROOT ***************************************************

?PR?BUZZER_KEY_BEEP?BUZZER                       -----    -----      -----    -----
  +--> ?PR?TIMER1_RELOAD?TIMER
  +--> ?PR?BUZZER_INIT?BUZZER

*** NEW ROOT ***************************************************

?C_C51STARTUP                                    -----    -----      -----    -----
  +--> ?PR?MAIN?MAIN
  +--> ?C_INITSEG

?PR?MAIN?MAIN                                    -----    -----      -----    -----
  +--> ?PR?EEPROM_READ_SECTOR_1?EEPROM_APPLI...
  +--> ?PR?LCD1602_INIT?LCD1602
  +--> ?PR?EC11_INIT?EC11
  +--> ?PR?TIMER1INIT?TIMER
  +--> ?PR?BUZZER_INIT?BUZZER
  +--> ?PR?UARTINIT?UART
  +--> ?PR?HSCH_START?HSCH51
  +--> ?PR?ESP8266_STA_AP_MODE?ESP8266
  +--> ?PR?_LCD1602_WRITE_CMD?LCD1602
  +--> ?PR?HSCH_INIT_T0?HSCH51
  +--> ?PR?HSCH_PAUSE?HSCH51
  +--> ?PR?EC11_SCAN?EC11
  +--> ?PR?_HSCH_ADD_TASK?HSCH51
  +--> ?PR?LCD1602_SHOW_UPDATE?LCD1602_SHOW
  +--> ?PR?LCD1602_TIME_UPDATE?LCD1602_CLOCK
  +--> ?PR?TASK_INPUT_UPDATE?RELAY
  +--> ?PR?TASK1_OUTPUT_UPDATE?RELAY
  +--> ?PR?TASK2_OUTPUT_UPDATE?RELAY
  +--> ?PR?TASK3_OUTPUT_UPDATE?RELAY
  +--> ?PR?TASK4_OUTPUT_UPDATE?RELAY
  +--> ?PR?TASK5_OUTPUT_UPDATE?RELAY
  +--> ?PR?TASK6_OUTPUT_UPDATE?RELAY
  +--> ?PR?HSCH_RUN?HSCH51
  +--> ?PR?HSCH_DISPATCH_TASKS?HSCH51

BL51 BANKED LINKER/LOCATER V6.22.2.0                                                  08/13/2022  23:50:26  PAGE 6


?PR?EEPROM_READ_SECTOR_1?EEPROM_APPLI...         -----    -----      -----    -----
  +--> ?PR?_IAPREADBYTE?EEPROM
  +--> ?PR?EEPROM_APPLICATION

?PR?_IAPREADBYTE?EEPROM                          -----    -----      -----    -----
  +--> ?PR?EEPROM
  +--> ?PR?IAPIDLE?EEPROM

?PR?LCD1602_INIT?LCD1602                         -----    -----      -----    -----
  +--> ?PR?DELAY15MS?DELAY
  +--> ?PR?_LCD1602_WRITE_CMD?LCD1602
  +--> ?PR?DELAY5MS?DELAY

?PR?_LCD1602_WRITE_CMD?LCD1602                   -----    -----      -----    -----
  +--> ?PR?LCD1602_BUSY_CHECK?LCD1602

?PR?ESP8266_STA_AP_MODE?ESP8266                  -----    -----      -----    -----
  +--> ?CO?ESP8266
  +--> ?PR?_ESP8266_SEND_STRING?ESP8266
  +--> ?PR?DELAY100MS?DELAY
  +--> ?PR?DELAY1000MS?DELAY
  +--> ?PR?ESP8266
  +--> ?PR?DELAY50MS?DELAY
  +--> ?PR?_LCD1602_WRITE_CMD?LCD1602
  +--> ?PR?_LCD1602_SHOW_STRING?LCD1602
  +--> ?CO?LCD1602_MENU

?PR?_ESP8266_SEND_STRING?ESP8266                 -----    -----      -----    -----
  +--> ?PR?_UART_SEND_STRING?UART
  +--> ?CO?ESP8266

?PR?_UART_SEND_STRING?UART                       -----    -----      -----    -----
  +--> ?PR?_UART_SEND_CHAR?UART

?PR?_LCD1602_SHOW_STRING?LCD1602                 -----    -----      0030H    0007H
  +--> ?CO?LCD1602
  +--> ?PR?_LCD1602_WRITE_CMD?LCD1602
  +--> ?PR?LCD1602
  +--> ?PR?_LCD1602_WRITE_DATA?LCD1602

?PR?_LCD1602_WRITE_DATA?LCD1602                  -----    -----      -----    -----
  +--> ?PR?LCD1602_BUSY_CHECK?LCD1602

?CO?LCD1602_MENU                                 -----    -----      -----    -----
  +--> ?PR?TASKS_CTRL_1_0?LCD1602_MENU
  +--> ?PR?TASKS_SET_1_1?LCD1602_MENU
  +--> ?PR?PORT_SET_1_2?LCD1602_MENU
  +--> ?PR?TIME_SET_1_3?LCD1602_MENU
  +--> ?PR?WIFI_SET_1_4?LCD1602_MENU
  +--> ?PR?RETURN_1_5?LCD1602_MENU
  +--> ?PR?TASK1_CTRL_2_6?LCD1602_MENU
  +--> ?PR?TASK2_CTRL_2_7?LCD1602_MENU
  +--> ?PR?TASK3_CTRL_2_8?LCD1602_MENU
  +--> ?PR?TASK4_CTRL_2_9?LCD1602_MENU
  +--> ?PR?TASK5_CTRL_2_10?LCD1602_MENU
  +--> ?PR?TASK6_CTRL_2_11?LCD1602_MENU
  +--> ?PR?RETURN_2_12?LCD1602_MENU
BL51 BANKED LINKER/LOCATER V6.22.2.0                                                  08/13/2022  23:50:26  PAGE 7


  +--> ?PR?TASK1_SET_2_13?LCD1602_MENU
  +--> ?PR?TASK2_SET_2_14?LCD1602_MENU
  +--> ?PR?TASK3_SET_2_15?LCD1602_MENU
  +--> ?PR?TASK4_SET_2_16?LCD1602_MENU
  +--> ?PR?TASK5_SET_2_17?LCD1602_MENU
  +--> ?PR?TASK6_SET_2_18?LCD1602_MENU
  +--> ?PR?RETURN_2_19?LCD1602_MENU
  +--> ?PR?PIN10_SET_2_20?LCD1602_MENU
  +--> ?PR?PIN11_SET_2_21?LCD1602_MENU
  +--> ?PR?PIN12_SET_2_22?LCD1602_MENU
  +--> ?PR?PIN13_SET_2_23?LCD1602_MENU
  +--> ?PR?PIN14_SET_2_24?LCD1602_MENU
  +--> ?PR?PIN15_SET_2_25?LCD1602_MENU
  +--> ?PR?PIN16_SET_2_26?LCD1602_MENU
  +--> ?PR?PIN17_SET_2_27?LCD1602_MENU
  +--> ?PR?PIN20_SET_2_28?LCD1602_MENU
  +--> ?PR?PIN21_SET_2_29?LCD1602_MENU
  +--> ?PR?PIN22_SET_2_30?LCD1602_MENU
  +--> ?PR?PIN23_SET_2_31?LCD1602_MENU
  +--> ?PR?PIN24_SET_2_32?LCD1602_MENU
  +--> ?PR?PIN35_SET_2_33?LCD1602_MENU
  +--> ?PR?PIN36_SET_2_34?LCD1602_MENU
  +--> ?PR?PIN37_SET_2_35?LCD1602_MENU
  +--> ?PR?RETURN_2_36?LCD1602_MENU
  +--> ?PR?TIME_SET_MANUAL_SET_2_37?LCD1602_...
  +--> ?PR?TIME_SET_AUTO_SET_2_38?LCD1602_MENU
  +--> ?PR?RETURN_2_39?LCD1602_MENU
  +--> ?PR?TCP_PORT_SET_2_40?LCD1602_MENU
  +--> ?PR?STA_IP_2_41?LCD1602_MENU
  +--> ?PR?AP_IP_2_42?LCD1602_MENU
  +--> ?PR?RETURN_2_43?LCD1602_MENU
  +--> ?PR?TASK_STARTTIME_SET_3_44?LCD1602_MENU
  +--> ?PR?TASK_ENDTIME_SET_3_45?LCD1602_MENU
  +--> ?PR?TASK_OVERTIME_SET_3_46?LCD1602_MENU
  +--> ?PR?TASK_OVERTIME_MODE_SET_3_47?LCD16...
  +--> ?PR?TASK_ONTIME_SET_3_48?LCD1602_MENU
  +--> ?PR?TASK_OFFTIME_SET_3_49?LCD1602_MENU
  +--> ?PR?RETURN_3_50?LCD1602_MENU
  +--> ?PR?SYSTEM_RESET_1_51?LCD1602_MENU

?PR?TASKS_CTRL_1_0?LCD1602_MENU                  -----    -----      -----    -----
  +--> ?PR?LCD1602_MENU

?PR?TASKS_SET_1_1?LCD1602_MENU                   -----    -----      -----    -----
  +--> ?PR?LCD1602_MENU

?PR?PORT_SET_1_2?LCD1602_MENU                    -----    -----      -----    -----
  +--> ?PR?LCD1602_MENU

?PR?TIME_SET_1_3?LCD1602_MENU                    -----    -----      -----    -----
  +--> ?PR?LCD1602_MENU

?PR?WIFI_SET_1_4?LCD1602_MENU                    -----    -----      -----    -----
  +--> ?PR?LCD1602_MENU

?PR?RETURN_1_5?LCD1602_MENU                      -----    -----      -----    -----
  +--> ?PR?LCD1602_MENU
BL51 BANKED LINKER/LOCATER V6.22.2.0                                                  08/13/2022  23:50:26  PAGE 8



?PR?RETURN_2_12?LCD1602_MENU                     -----    -----      -----    -----
  +--> ?PR?LCD1602_MENU

?PR?TASK1_SET_2_13?LCD1602_MENU                  -----    -----      -----    -----
  +--> ?PR?LCD1602_MENU

?PR?TASK2_SET_2_14?LCD1602_MENU                  -----    -----      -----    -----
  +--> ?PR?LCD1602_MENU

?PR?TASK3_SET_2_15?LCD1602_MENU                  -----    -----      -----    -----
  +--> ?PR?LCD1602_MENU

?PR?TASK4_SET_2_16?LCD1602_MENU                  -----    -----      -----    -----
  +--> ?PR?LCD1602_MENU

?PR?TASK5_SET_2_17?LCD1602_MENU                  -----    -----      -----    -----
  +--> ?PR?LCD1602_MENU

?PR?TASK6_SET_2_18?LCD1602_MENU                  -----    -----      -----    -----
  +--> ?PR?LCD1602_MENU

?PR?RETURN_2_19?LCD1602_MENU                     -----    -----      -----    -----
  +--> ?PR?LCD1602_MENU

?PR?PIN10_SET_2_20?LCD1602_MENU                  -----    -----      -----    -----
  +--> ?PR?LCD1602_MENU

?PR?PIN11_SET_2_21?LCD1602_MENU                  -----    -----      -----    -----
  +--> ?PR?LCD1602_MENU

?PR?PIN12_SET_2_22?LCD1602_MENU                  -----    -----      -----    -----
  +--> ?PR?LCD1602_MENU

?PR?PIN13_SET_2_23?LCD1602_MENU                  -----    -----      -----    -----
  +--> ?PR?LCD1602_MENU

?PR?PIN14_SET_2_24?LCD1602_MENU                  -----    -----      -----    -----
  +--> ?PR?LCD1602_MENU

?PR?PIN15_SET_2_25?LCD1602_MENU                  -----    -----      -----    -----
  +--> ?PR?LCD1602_MENU

?PR?PIN16_SET_2_26?LCD1602_MENU                  -----    -----      -----    -----
  +--> ?PR?LCD1602_MENU

?PR?PIN17_SET_2_27?LCD1602_MENU                  -----    -----      -----    -----
  +--> ?PR?LCD1602_MENU

?PR?PIN20_SET_2_28?LCD1602_MENU                  -----    -----      -----    -----
  +--> ?PR?LCD1602_MENU

?PR?PIN21_SET_2_29?LCD1602_MENU                  -----    -----      -----    -----
  +--> ?PR?LCD1602_MENU

?PR?PIN22_SET_2_30?LCD1602_MENU                  -----    -----      -----    -----
  +--> ?PR?LCD1602_MENU
BL51 BANKED LINKER/LOCATER V6.22.2.0                                                  08/13/2022  23:50:26  PAGE 9



?PR?PIN23_SET_2_31?LCD1602_MENU                  -----    -----      -----    -----
  +--> ?PR?LCD1602_MENU

?PR?PIN24_SET_2_32?LCD1602_MENU                  -----    -----      -----    -----
  +--> ?PR?LCD1602_MENU

?PR?PIN35_SET_2_33?LCD1602_MENU                  -----    -----      -----    -----
  +--> ?PR?LCD1602_MENU

?PR?PIN36_SET_2_34?LCD1602_MENU                  -----    -----      -----    -----
  +--> ?PR?LCD1602_MENU

?PR?PIN37_SET_2_35?LCD1602_MENU                  -----    -----      -----    -----
  +--> ?PR?LCD1602_MENU

?PR?RETURN_2_36?LCD1602_MENU                     -----    -----      -----    -----
  +--> ?PR?LCD1602_MENU

?PR?TIME_SET_MANUAL_SET_2_37?LCD1602_...         -----    -----      -----    -----
  +--> ?PR?LCD1602_MENU

?PR?TIME_SET_AUTO_SET_2_38?LCD1602_MENU          -----    -----      -----    -----
  +--> ?PR?LCD1602_MENU

?PR?RETURN_2_39?LCD1602_MENU                     -----    -----      -----    -----
  +--> ?PR?LCD1602_MENU

?PR?TCP_PORT_SET_2_40?LCD1602_MENU               -----    -----      -----    -----
  +--> ?PR?LCD1602_MENU

?PR?STA_IP_2_41?LCD1602_MENU                     -----    -----      -----    -----
  +--> ?PR?LCD1602_MENU

?PR?AP_IP_2_42?LCD1602_MENU                      -----    -----      -----    -----
  +--> ?PR?LCD1602_MENU

?PR?RETURN_2_43?LCD1602_MENU                     -----    -----      -----    -----
  +--> ?PR?LCD1602_MENU

?PR?TASK_STARTTIME_SET_3_44?LCD1602_MENU         -----    -----      -----    -----
  +--> ?PR?LCD1602_MENU

?PR?TASK_ENDTIME_SET_3_45?LCD1602_MENU           -----    -----      -----    -----
  +--> ?PR?LCD1602_MENU

?PR?TASK_OVERTIME_SET_3_46?LCD1602_MENU          -----    -----      -----    -----
  +--> ?PR?LCD1602_MENU

?PR?TASK_OVERTIME_MODE_SET_3_47?LCD16...         -----    -----      -----    -----
  +--> ?PR?LCD1602_MENU

?PR?TASK_ONTIME_SET_3_48?LCD1602_MENU            -----    -----      -----    -----
  +--> ?PR?LCD1602_MENU

?PR?TASK_OFFTIME_SET_3_49?LCD1602_MENU           -----    -----      -----    -----
  +--> ?PR?LCD1602_MENU
BL51 BANKED LINKER/LOCATER V6.22.2.0                                                  08/13/2022  23:50:26  PAGE 10



?PR?RETURN_3_50?LCD1602_MENU                     -----    -----      -----    -----
  +--> ?PR?LCD1602_MENU

?PR?SYSTEM_RESET_1_51?LCD1602_MENU               -----    -----      -----    -----
  +--> ?PR?LCD1602_MENU
  +--> ?PR?SYSTEM_DATA_RESET?EEPROM_APPLICATION
  +--> ?PR?EEPROM_PROGRAM_SECTOR_1?EEPROM_AP...

?PR?SYSTEM_DATA_RESET?EEPROM_APPLICATION         -----    -----      -----    -----
  +--> ?PR?EEPROM_APPLICATION
  +--> ?CO?EEPROM_APPLICATION

?PR?HSCH_INIT_T0?HSCH51                          -----    -----      0030H    0001H
  +--> ?PR?HSCH51
  +--> ?PR?_HSCH_DELETE_TASK?HSCH51

?PR?_HSCH_DELETE_TASK?HSCH51                     002BH.6  0000H.1    -----    -----
  +--> ?PR?HSCH51

?PR?EC11_SCAN?EC11                               -----    -----      -----    -----
  +--> ?PR?BUZZER_OPEN?BUZZER

?PR?_HSCH_ADD_TASK?HSCH51                        002BH.6  0000H.1    0030H    0002H
  +--> ?PR?HSCH51

?PR?LCD1602_SHOW_UPDATE?LCD1602_SHOW             -----    -----      -----    -----
  +--> ?PR?LCD1602_CLOCK_UPDATE?LCD1602_CLOCK
  +--> ?PR?LCD1602_DATETIME_UPDATE?LCD1602_C...
  +--> ?PR?LCD1602_MENU_UPDATE?LCD1602_MENU

?PR?LCD1602_CLOCK_UPDATE?LCD1602_CLOCK           -----    -----      -----    -----
  +--> ?PR?_LCD1602_NUMBER?LCD1602_CLOCK
  +--> ?PR?LCD1602_CLOCK
  +--> ?PR?_LCD1602_CUSTOM_CHAR?LCD1602
  +--> ?CO?LCD1602_CLOCK

?PR?_LCD1602_NUMBER?LCD1602_CLOCK                -----    -----      0030H    0001H
  +--> ?PR?LCD1602_CLOCK
  +--> ?PR?_LCD1602_CUSTOM_CHAR?LCD1602
  +--> ?CO?LCD1602_CLOCK

?PR?LCD1602_CLOCK                                -----    -----      -----    -----
  +--> ?CO?LCD1602_CLOCK

?PR?_LCD1602_CUSTOM_CHAR?LCD1602                 -----    -----      0031H    0007H
  +--> ?PR?_LCD1602_WRITE_CMD?LCD1602
  +--> ?PR?_LCD1602_WRITE_DATA?LCD1602

?PR?LCD1602_DATETIME_UPDATE?LCD1602_C...         -----    -----      -----    -----
  +--> ?PR?_LCD1602_SHOW_STRING?LCD1602
  +--> ?CO?LCD1602_CLOCK

?PR?LCD1602_MENU_UPDATE?LCD1602_MENU             -----    -----      -----    -----
  +--> ?PR?LCD1602_MENU
  +--> ?CO?LCD1602_MENU
  +--> ?PR?EEPROM_PROGRAM_SECTOR_1?EEPROM_AP...
BL51 BANKED LINKER/LOCATER V6.22.2.0                                                  08/13/2022  23:50:26  PAGE 11


  +--> ?PR?LCD1602_SHOW_CURRENT_PAGE?LCD1602...

?PR?LCD1602_SHOW_CURRENT_PAGE?LCD1602...         -----    -----      -----    -----
  +--> ?PR?LCD1602_MENU
  +--> ?PR?_LCD1602_SHOW_STRING?LCD1602

?PR?LCD1602_TIME_UPDATE?LCD1602_CLOCK            -----    -----      -----    -----
  +--> ?PR?LCD1602_CLOCK

?PR?TASK1_OUTPUT_UPDATE?RELAY                    -----    -----      -----    -----
  +--> ?PR?RELAY

?PR?TASK2_OUTPUT_UPDATE?RELAY                    -----    -----      -----    -----
  +--> ?PR?RELAY

?PR?TASK3_OUTPUT_UPDATE?RELAY                    -----    -----      -----    -----
  +--> ?PR?RELAY

?PR?TASK4_OUTPUT_UPDATE?RELAY                    -----    -----      -----    -----
  +--> ?PR?RELAY

?PR?TASK5_OUTPUT_UPDATE?RELAY                    -----    -----      -----    -----
  +--> ?PR?RELAY

?PR?TASK6_OUTPUT_UPDATE?RELAY                    -----    -----      -----    -----
  +--> ?PR?RELAY

?PR?HSCH_DISPATCH_TASKS?HSCH51                   -----    -----      0030H    0001H
  +--> ?PR?HSCH51



SYMBOL TABLE OF MODULE:  ..\Output\Wireless_Controller (MAIN)

  VALUE           TYPE          NAME
  ----------------------------------

  -------         MODULE        MAIN
  C:0000H         SYMBOL        _ICE_DUMMY_
  D:0080H         PUBLIC        P0
  D:0090H         PUBLIC        P1
  D:00B4H         PUBLIC        P4M0
  D:00A0H         PUBLIC        P2
  D:00B3H         PUBLIC        P4M1
  D:00B0H         PUBLIC        P3
  D:00C0H         PUBLIC        P4
  D:00C8H         PUBLIC        P5
  D:00A8H         PUBLIC        IE
  D:00B8H         PUBLIC        IP
  D:00D8H         PUBLIC        CCON
  C:B2AEH         PUBLIC        main
  D:00BBH         PUBLIC        P4SW
  D:0098H         PUBLIC        SCON
  D:0088H         PUBLIC        TCON
  D:00D0H         PUBLIC        PSW
  C:B367H         SYMBOL        L?0004
  C:B371H         SYMBOL        L?0005
BL51 BANKED LINKER/LOCATER V6.22.2.0                                                  08/13/2022  23:50:26  PAGE 12


  C:B37BH         SYMBOL        L?0006
  -------         PROC          MAIN
  C:B2AEH         LINE#         28
  C:B2AEH         LINE#         29
  C:B2AEH         LINE#         32
  C:B2B1H         LINE#         33
  C:B2B4H         LINE#         34
  C:B2B7H         LINE#         36
  C:B2BAH         LINE#         37
  C:B2BDH         LINE#         38
  C:B2C0H         LINE#         39
  C:B2C3H         LINE#         40
  C:B2C6H         LINE#         41
  C:B2C9H         LINE#         43
  C:B2CCH         LINE#         45
  C:B2CFH         LINE#         47
  C:B2D4H         LINE#         49
  C:B2D7H         LINE#         52
  C:B2DAH         LINE#         56
  C:B2EAH         LINE#         58
  C:B2FBH         LINE#         59
  C:B30CH         LINE#         61
  C:B317H         LINE#         62
  C:B322H         LINE#         63
  C:B32DH         LINE#         64
  C:B338H         LINE#         66
  C:B343H         LINE#         67
  C:B34EH         LINE#         68
  C:B35FH         LINE#         72
  C:B362H         LINE#         77
  C:B362H         LINE#         78
  C:B362H         LINE#         79
  C:B365H         LINE#         80
  C:B367H         LINE#         81
  -------         ENDPROC       MAIN
  -------         ENDMOD        MAIN

  -------         MODULE        HSCH51
  C:0000H         SYMBOL        _ICE_DUMMY_
  D:0080H         PUBLIC        P0
  D:0090H         PUBLIC        P1
  D:00A0H         PUBLIC        P2
  D:00B0H         PUBLIC        P3
  D:00C0H         PUBLIC        P4
  D:00C8H         PUBLIC        P5
  B:00A8H.7       PUBLIC        EA
  D:00A8H         PUBLIC        IE
  C:B385H         PUBLIC        hSCH_Update
  D:00B8H         PUBLIC        IP
  C:BD67H         PUBLIC        hSCH_Init_T0
  D:00D8H         PUBLIC        CCON
  C:B951H         PUBLIC        _hSCH_Add_Task
  C:C08BH         PUBLIC        hSCH_Pause
  D:0098H         PUBLIC        SCON
  D:0089H         PUBLIC        TMOD
  D:0088H         PUBLIC        TCON
  C:C085H         PUBLIC        hSCH_Start
BL51 BANKED LINKER/LOCATER V6.22.2.0                                                  08/13/2022  23:50:26  PAGE 13


  D:008EH         PUBLIC        AUXR
  C:BA50H         PUBLIC        hSCH_Dispatch_Tasks
  B:00A8H.1       PUBLIC        ET0
  B:0088H.5       PUBLIC        TF0
  D:008CH         PUBLIC        TH0
  D:008AH         PUBLIC        TL0
  B:0088H.4       PUBLIC        TR0
  C:C088H         PUBLIC        hSCH_Run
  C:BD3BH         PUBLIC        _hSCH_Delete_Task
  I:0052H         PUBLIC        hSCH_tasks_G
  D:00D0H         PUBLIC        PSW
  C:BBDFH         SYMBOL        Com0021
  C:BBDFH         SYMBOL        L?0034
  C:BBDFH         SYMBOL        L?0035
  C:BBE0H         SYMBOL        L?0036
  C:BBE8H         SYMBOL        L?0037
  C:BBE8H         SYMBOL        L?0038
  C:BBEFH         SYMBOL        L?0039
  C:BBF1H         SYMBOL        L?0040
  C:BBF9H         SYMBOL        L?0041
  C:BBF9H         SYMBOL        L?0042
  C:BBFAH         SYMBOL        L?0043
  C:BC01H         SYMBOL        L?0044
  C:BC0BH         SYMBOL        L?0045
  -------         PROC          COM0021
  -------         ENDPROC       COM0021
  -------         PROC          HSCH_INIT_T0
  -------         DO            
  D:0030H         SYMBOL        i
  -------         ENDDO         
  C:BD67H         LINE#         23
  C:BD67H         LINE#         24
  C:BD67H         LINE#         27
  C:BD71H         LINE#         28
  C:BD71H         LINE#         29
  C:BD76H         LINE#         30
  C:BD7AH         LINE#         36
  C:BD7DH         LINE#         37
  C:BD80H         LINE#         38
  C:BD83H         LINE#         39
  C:BD86H         LINE#         40
  C:BD89H         LINE#         41
  C:BD8BH         LINE#         42
  C:BD8DH         LINE#         44
  -------         ENDPROC       HSCH_INIT_T0
  -------         PROC          HSCH_START
  C:C085H         LINE#         56
  C:C085H         LINE#         57
  C:C085H         LINE#         58
  C:C087H         LINE#         59
  -------         ENDPROC       HSCH_START
  -------         PROC          HSCH_UPDATE
  -------         DO            
  D:002CH         SYMBOL        Index
  -------         ENDDO         
  C:B385H         LINE#         70
  C:B3A2H         LINE#         74
BL51 BANKED LINKER/LOCATER V6.22.2.0                                                  08/13/2022  23:50:26  PAGE 14


  C:B3A4H         LINE#         75
  C:B3A6H         LINE#         76
  C:B3A9H         LINE#         77
  C:B3ACH         LINE#         78
  C:B3AEH         LINE#         81
  C:B3B8H         LINE#         82
  C:B3B8H         LINE#         83
  C:B3C3H         LINE#         84
  C:B3C3H         LINE#         85
  C:B3CEH         LINE#         86
  C:B3CEH         LINE#         87
  C:B3D7H         LINE#         88
  C:B3D7H         LINE#         89
  C:B3DEH         LINE#         90
  C:B3E0H         LINE#         92
  C:B3E0H         LINE#         93
  C:B3E8H         LINE#         94
  C:B3EFH         LINE#         96
  C:B3FAH         LINE#         97
  C:B3FAH         LINE#         98
  C:B404H         LINE#         99
  C:B404H         LINE#         100
  C:B404H         LINE#         101
  C:B412H         LINE#         102
  C:B412H         LINE#         103
  C:B41DH         LINE#         104
  C:B41DH         LINE#         105
  C:B41FH         LINE#         107
  C:B41FH         LINE#         108
  C:B42BH         LINE#         109
  C:B42BH         LINE#         110
  C:B42BH         LINE#         111
  C:B430H         LINE#         112
  -------         ENDPROC       HSCH_UPDATE
  -------         PROC          HSCH_DISPATCH_TASKS
  -------         DO            
  D:0030H         SYMBOL        Index
  -------         ENDDO         
  C:BA50H         LINE#         123
  C:BA50H         LINE#         124
  C:BA50H         LINE#         127
  C:BA5BH         LINE#         128
  C:BA5BH         LINE#         130
  C:BA74H         LINE#         131
  C:BA74H         LINE#         132
  C:BA7CH         LINE#         133
  C:BA80H         LINE#         137
  C:BA8EH         LINE#         138
  C:BA8EH         LINE#         140
  C:BA97H         LINE#         141
  C:BA97H         LINE#         142
  C:BA97H         LINE#         143
  C:BA9BH         LINE#         144
  -------         ENDPROC       HSCH_DISPATCH_TASKS
  -------         PROC          _HSCH_ADD_TASK
  D:0030H         SYMBOL        Fn_p
  D:0004H         SYMBOL        Del
BL51 BANKED LINKER/LOCATER V6.22.2.0                                                  08/13/2022  23:50:26  PAGE 15


  D:0002H         SYMBOL        Per
  B:002BH.6       SYMBOL        Co_op
  -------         DO            
  D:0007H         SYMBOL        Index
  -------         ENDDO         
  C:B951H         LINE#         196
  C:B955H         LINE#         200
  C:B955H         LINE#         201
  C:B957H         LINE#         204
  C:B969H         LINE#         205
  C:B969H         LINE#         206
  C:B96AH         LINE#         207
  C:B96CH         LINE#         210
  C:B971H         LINE#         211
  C:B971H         LINE#         212
  C:B974H         LINE#         213
  C:B974H         LINE#         216
  C:B97CH         LINE#         217
  C:B989H         LINE#         218
  C:B996H         LINE#         219
  C:B9A5H         LINE#         220
  C:B9ABH         LINE#         222
  C:B9ABH         LINE#         223
  -------         ENDPROC       _HSCH_ADD_TASK
  -------         PROC          _HSCH_DELETE_TASK
  D:0007H         SYMBOL        Task_index
  -------         DO            
  B:002BH.6       SYMBOL        Return_code
  -------         ENDDO         
  C:BD3BH         LINE#         241
  C:BD3BH         LINE#         242
  C:BD3BH         LINE#         245
  C:BD45H         LINE#         246
  C:BD45H         LINE#         247
  C:BD47H         LINE#         248
  C:BD49H         LINE#         250
  C:BD49H         LINE#         251
  C:BD4BH         LINE#         252
  C:BD4BH         LINE#         254
  C:BD4EH         LINE#         255
  C:BD54H         LINE#         256
  C:BD5EH         LINE#         257
  C:BD64H         LINE#         259
  C:BD66H         LINE#         260
  -------         ENDPROC       _HSCH_DELETE_TASK
  -------         PROC          HSCH_RUN
  C:C088H         LINE#         270
  C:C088H         LINE#         271
  C:C088H         LINE#         272
  C:C08AH         LINE#         273
  -------         ENDPROC       HSCH_RUN
  -------         PROC          HSCH_PAUSE
  C:C08BH         LINE#         280
  C:C08BH         LINE#         281
  C:C08BH         LINE#         282
  C:C08DH         LINE#         283
  -------         ENDPROC       HSCH_PAUSE
BL51 BANKED LINKER/LOCATER V6.22.2.0                                                  08/13/2022  23:50:26  PAGE 16


  -------         ENDMOD        HSCH51

  -------         MODULE        DELAY
  C:0000H         SYMBOL        _ICE_DUMMY_
  D:0080H         PUBLIC        P0
  D:0090H         PUBLIC        P1
  D:00A0H         PUBLIC        P2
  D:00B0H         PUBLIC        P3
  D:00C0H         PUBLIC        P4
  D:00C8H         PUBLIC        P5
  C:C03BH         PUBLIC        Delay5ms
  D:00A8H         PUBLIC        IE
  C:BFFBH         PUBLIC        Delay1000ms
  D:00B8H         PUBLIC        IP
  D:00D8H         PUBLIC        CCON
  D:0098H         PUBLIC        SCON
  D:0088H         PUBLIC        TCON
  C:000EH         PUBLIC        Delay50ms
  C:C046H         PUBLIC        Delay15ms
  C:BFEEH         PUBLIC        Delay100ms
  D:00D0H         PUBLIC        PSW
  -------         PROC          DELAY5MS
  -------         DO            
  D:0007H         SYMBOL        i
  D:0006H         SYMBOL        j
  -------         ENDDO         
  C:C03BH         LINE#         14
  C:C03BH         LINE#         15
  C:C03BH         LINE#         18
  C:C03CH         LINE#         19
  C:C03DH         LINE#         20
  C:C03FH         LINE#         21
  C:C041H         LINE#         23
  C:C041H         LINE#         24
  C:C043H         LINE#         25
  C:C045H         LINE#         26
  -------         ENDPROC       DELAY5MS
  -------         PROC          DELAY15MS
  -------         DO            
  D:0007H         SYMBOL        i
  D:0006H         SYMBOL        j
  -------         ENDDO         
  C:C046H         LINE#         34
  C:C046H         LINE#         35
  C:C046H         LINE#         38
  C:C047H         LINE#         39
  C:C048H         LINE#         40
  C:C04AH         LINE#         41
  C:C04CH         LINE#         43
  C:C04CH         LINE#         44
  C:C04EH         LINE#         45
  C:C050H         LINE#         46
  -------         ENDPROC       DELAY15MS
  -------         PROC          DELAY50MS
  -------         DO            
  D:0007H         SYMBOL        i
  D:0006H         SYMBOL        j
BL51 BANKED LINKER/LOCATER V6.22.2.0                                                  08/13/2022  23:50:26  PAGE 17


  D:0005H         SYMBOL        k
  -------         ENDDO         
  C:000EH         LINE#         55
  C:000EH         LINE#         56
  C:000EH         LINE#         59
  C:0010H         LINE#         60
  C:0012H         LINE#         61
  C:0014H         LINE#         63
  C:0014H         LINE#         65
  C:0014H         LINE#         66
  C:0016H         LINE#         67
  C:0018H         LINE#         68
  C:001AH         LINE#         69
  -------         ENDPROC       DELAY50MS
  -------         PROC          DELAY100MS
  -------         DO            
  D:0007H         SYMBOL        i
  D:0006H         SYMBOL        j
  D:0005H         SYMBOL        k
  -------         ENDDO         
  C:BFEEH         LINE#         79
  C:BFEEH         LINE#         80
  C:BFEEH         LINE#         83
  C:BFF0H         LINE#         84
  C:BFF2H         LINE#         85
  C:BFF4H         LINE#         87
  C:BFF4H         LINE#         89
  C:BFF4H         LINE#         90
  C:BFF6H         LINE#         91
  C:BFF8H         LINE#         92
  C:BFFAH         LINE#         93
  -------         ENDPROC       DELAY100MS
  -------         PROC          DELAY1000MS
  -------         DO            
  D:0007H         SYMBOL        i
  D:0006H         SYMBOL        j
  D:0005H         SYMBOL        k
  -------         ENDDO         
  C:BFFBH         LINE#         151
  C:BFFBH         LINE#         152
  C:BFFBH         LINE#         155
  C:BFFDH         LINE#         156
  C:BFFFH         LINE#         157
  C:C001H         LINE#         159
  C:C001H         LINE#         161
  C:C001H         LINE#         162
  C:C003H         LINE#         163
  C:C005H         LINE#         164
  C:C007H         LINE#         165
  -------         ENDPROC       DELAY1000MS
  -------         ENDMOD        DELAY

  -------         MODULE        DOWNLOAD
  C:0000H         SYMBOL        _ICE_DUMMY_
  D:0080H         PUBLIC        P0
  D:0090H         PUBLIC        P1
  D:00A0H         PUBLIC        P2
BL51 BANKED LINKER/LOCATER V6.22.2.0                                                  08/13/2022  23:50:26  PAGE 18


  D:00B0H         PUBLIC        P3
  D:00C0H         PUBLIC        P4
  D:00C8H         PUBLIC        P5
  D:00A8H         PUBLIC        IE
  D:00B8H         PUBLIC        IP
  D:00D8H         PUBLIC        CCON
  D:0098H         PUBLIC        SCON
  D:0088H         PUBLIC        TCON
  D:00D0H         PUBLIC        PSW
  -------         ENDMOD        DOWNLOAD

  -------         MODULE        LCD1602_CLOCK
  C:0000H         SYMBOL        _ICE_DUMMY_
  D:0038H         PUBLIC        second
  D:0080H         PUBLIC        P0
  D:0090H         PUBLIC        P1
  D:00A0H         PUBLIC        P2
  D:00B0H         PUBLIC        P3
  D:00C0H         PUBLIC        P4
  X:03C9H         PUBLIC        Max_Month_Days
  D:00C8H         PUBLIC        P5
  D:00A8H         PUBLIC        IE
  D:0039H         PUBLIC        minute
  D:003AH         PUBLIC        hour_bit_pos
  B:002BH.0       PUBLIC        isFixTime
  D:00B8H         PUBLIC        IP
  C:BB2FH         PUBLIC        lcd1602Table0
  C:BB37H         PUBLIC        lcd1602Table1
  C:BB3FH         PUBLIC        lcd1602Table2
  D:003BH         PUBLIC        hour_ten_pos
  C:BB47H         PUBLIC        lcd1602Table3
  C:BB4FH         PUBLIC        lcd1602Table4
  C:BB57H         PUBLIC        lcd1602Table5
  C:BB5FH         PUBLIC        lcd1602Table6
  D:00D8H         PUBLIC        CCON
  B:002BH.1       PUBLIC        point
  D:0098H         PUBLIC        SCON
  C:B44BH         PUBLIC        LCD1602_Clock_Update
  D:0088H         PUBLIC        TCON
  D:003CH         PUBLIC        hour
  D:003DH         PUBLIC        NowTime
  C:9EAFH         PUBLIC        LCD1602_Time_Update
  C:BA9CH         PUBLIC        LCD1602_DateTime_Update
  D:003FH         PUBLIC        minute_bit_pos
  C:8F32H         PUBLIC        _LCD1602_Number
  D:0040H         PUBLIC        minute_ten_pos
  D:00D0H         PUBLIC        PSW
  C:B64CH         SYMBOL        Com0033
  C:B64CH         SYMBOL        L?0052
  C:B64CH         SYMBOL        L?0053
  C:B653H         SYMBOL        L?0054
  C:B65FH         SYMBOL        L?0055
  C:B661H         SYMBOL        L?0056
  C:B662H         SYMBOL        L?0057
  C:B66EH         SYMBOL        L?0059
  C:B67CH         SYMBOL        L?0060
  C:B685H         SYMBOL        L?0063
BL51 BANKED LINKER/LOCATER V6.22.2.0                                                  08/13/2022  23:50:26  PAGE 19


  C:B685H         SYMBOL        L?0064
  C:B687H         SYMBOL        L?0065
  C:B694H         SYMBOL        L?0067
  C:B696H         SYMBOL        L?0068
  C:B69AH         SYMBOL        L?0069
  C:B6A3H         SYMBOL        L?0070
  C:B6A3H         SYMBOL        L?0071
  C:B6A5H         SYMBOL        L?0072
  C:B6ACH         SYMBOL        L?0075
  C:B6B1H         SYMBOL        L?0076
  C:B6BAH         SYMBOL        L?0077
  C:B6C3H         SYMBOL        L?0081
  C:B6D3H         SYMBOL        L?0083
  -------         PROC          COM0033
  -------         ENDPROC       COM0033
  C:9042H         SYMBOL        L?0043
  C:9096H         SYMBOL        L?0044
  C:90D0H         SYMBOL        L?0045
  C:90FBH         SYMBOL        L?0046
  C:9112H         SYMBOL        L?0047
  C:913EH         SYMBOL        L?0048
  C:9154H         SYMBOL        L?0049
  C:916AH         SYMBOL        L?0050
  C:9194H         SYMBOL        L?0058
  C:91ABH         SYMBOL        L?0061
  C:91BFH         SYMBOL        L?0062
  C:91D3H         SYMBOL        L?0066
  C:91E1H         SYMBOL        L?0073
  C:91F5H         SYMBOL        L?0074
  C:91FDH         SYMBOL        L?0082
  -------         PROC          _LCD1602_NUMBER
  D:0030H         SYMBOL        column_change
  D:0005H         SYMBOL        number
  C:8F32H         LINE#         55
  C:8F34H         LINE#         56
  C:8F34H         LINE#         57
  C:8F62H         LINE#         58
  C:8F62H         LINE#         59
  C:8F62H         LINE#         60
  C:8F68H         LINE#         61
  C:8F6BH         LINE#         62
  C:8F6BH         LINE#         63
  C:8F6BH         LINE#         64
  C:8F6BH         LINE#         65
  C:8F6EH         LINE#         66
  C:8F6EH         LINE#         67
  C:8F76H         LINE#         68
  C:8F79H         LINE#         69
  C:8F81H         LINE#         70
  C:8F89H         LINE#         71
  C:8F8CH         LINE#         72
  C:8F92H         LINE#         73
  C:8F95H         LINE#         74
  C:8F95H         LINE#         75
  C:8F95H         LINE#         76
  C:8F95H         LINE#         77
  C:8F98H         LINE#         78
BL51 BANKED LINKER/LOCATER V6.22.2.0                                                  08/13/2022  23:50:26  PAGE 20


  C:8F98H         LINE#         79
  C:8F9BH         LINE#         80
  C:8FA1H         LINE#         81
  C:8FA4H         LINE#         82
  C:8FA4H         LINE#         83
  C:8FA7H         LINE#         84
  C:8FADH         LINE#         85
  C:8FADH         LINE#         86
  C:8FADH         LINE#         87
  C:8FADH         LINE#         88
  C:8FB0H         LINE#         89
  C:8FB3H         LINE#         90
  C:8FB3H         LINE#         91
  C:8FB3H         LINE#         92
  C:8FB9H         LINE#         93
  C:8FBCH         LINE#         94
  C:8FC7H         LINE#         95
  C:8FCCH         LINE#         96
  C:8FCFH         LINE#         97
  C:8FD2H         LINE#         98
  C:8FD2H         LINE#         99
  C:8FD2H         LINE#         100
  C:8FD2H         LINE#         101
  C:8FD7H         LINE#         102
  C:8FDDH         LINE#         103
  C:8FDDH         LINE#         104
  C:8FE0H         LINE#         105
  C:8FE3H         LINE#         106
  C:8FE3H         LINE#         107
  C:8FE3H         LINE#         108
  C:8FE3H         LINE#         109
  C:8FEBH         LINE#         110
  C:8FFAH         LINE#         111
  C:8FFAH         LINE#         112
  C:8FFDH         LINE#         113
  C:9000H         LINE#         114
  C:9000H         LINE#         115
  C:9000H         LINE#         116
  C:9000H         LINE#         117
  C:9008H         LINE#         118
  C:9013H         LINE#         119
  C:901AH         LINE#         120
  C:901DH         LINE#         121
  C:9020H         LINE#         122
  C:9020H         LINE#         123
  C:9020H         LINE#         124
  C:9028H         LINE#         125
  C:902BH         LINE#         126
  C:902BH         LINE#         127
  C:902EH         LINE#         128
  C:9031H         LINE#         129
  C:9033H         LINE#         130
  C:9033H         LINE#         131
  C:9033H         LINE#         132
  C:9039H         LINE#         133
  C:9039H         LINE#         134
  C:9039H         LINE#         135
BL51 BANKED LINKER/LOCATER V6.22.2.0                                                  08/13/2022  23:50:26  PAGE 21


  C:9039H         LINE#         136
  C:9041H         LINE#         137
  C:9041H         LINE#         138
  C:9041H         LINE#         139
  -------         ENDPROC       _LCD1602_NUMBER
  -------         PROC          LCD1602_TIME_UPDATE
  C:9EAFH         LINE#         148
  C:9EAFH         LINE#         149
  C:9EAFH         LINE#         152
  C:9ECFH         LINE#         153
  C:9ECFH         LINE#         154
  C:9ED5H         LINE#         155
  C:9ED7H         LINE#         156
  C:9EDDH         LINE#         157
  C:9EDDH         LINE#         169
  C:9EF7H         LINE#         170
  C:9EF7H         LINE#         171
  C:9EF7H         LINE#         172
  C:9EF7H         LINE#         173
  C:9EF9H         LINE#         175
  C:9F13H         LINE#         176
  C:9F13H         LINE#         177
  C:9F15H         LINE#         178
  C:9F17H         LINE#         179
  C:9F19H         LINE#         180
  C:9F19H         LINE#         182
  C:9F1BH         LINE#         183
  C:9F1DH         LINE#         184
  C:9F27H         LINE#         185
  C:9F29H         LINE#         186
  C:9F2BH         LINE#         187
  C:9F2DH         LINE#         188
  C:9F35H         LINE#         189
  C:9F37H         LINE#         190
  C:9F39H         LINE#         191
  C:9F43H         LINE#         192
  C:9F45H         LINE#         193
  C:9F47H         LINE#         194
  C:9F6BH         LINE#         195
  C:9F6EH         LINE#         196
  C:9F70H         LINE#         197
  C:9F7AH         LINE#         198
  C:9F7DH         LINE#         199
  C:9F85H         LINE#         200
  C:9F85H         LINE#         201
  C:9F85H         LINE#         202
  C:9F85H         LINE#         203
  C:9F85H         LINE#         204
  C:9F85H         LINE#         206
  C:9FA2H         LINE#         213
  C:9FBBH         LINE#         214
  C:9FC0H         LINE#         215
  C:9FC3H         LINE#         216
  C:9FCBH         LINE#         218
  C:9FD4H         LINE#         219
  C:9FDDH         LINE#         221
  C:9FE6H         LINE#         222
BL51 BANKED LINKER/LOCATER V6.22.2.0                                                  08/13/2022  23:50:26  PAGE 22


  C:9FEFH         LINE#         225
  C:9FF8H         LINE#         226
  C:A001H         LINE#         228
  C:A00AH         LINE#         229
  C:A013H         LINE#         231
  C:A01CH         LINE#         232
  C:A025H         LINE#         235
  -------         ENDPROC       LCD1602_TIME_UPDATE
  C:B4E2H         SYMBOL        L?0078
  C:B4EEH         SYMBOL        L?0080
  -------         PROC          LCD1602_CLOCK_UPDATE
  C:B44BH         LINE#         245
  C:B44BH         LINE#         246
  C:B44BH         LINE#         247
  C:B459H         LINE#         248
  C:B465H         LINE#         249
  C:B46BH         LINE#         250
  C:B475H         LINE#         252
  C:B47FH         LINE#         253
  C:B489H         LINE#         254
  C:B493H         LINE#         255
  C:B49DH         LINE#         257
  C:B4A0H         LINE#         258
  C:B4A7H         LINE#         259
  C:B4AFH         LINE#         260
  C:B4B9H         LINE#         261
  C:B4BCH         LINE#         262
  C:B4BEH         LINE#         263
  C:B4C8H         LINE#         264
  C:B4CFH         LINE#         265
  C:B4D7H         LINE#         266
  C:B4E1H         LINE#         267
  C:B4E1H         LINE#         268
  -------         ENDPROC       LCD1602_CLOCK_UPDATE
  C:BACAH         SYMBOL        L?0079
  C:BAD8H         SYMBOL        L?0084
  -------         PROC          LCD1602_DATETIME_UPDATE
  C:BA9CH         LINE#         277
  C:BA9CH         LINE#         278
  C:BA9CH         LINE#         279
  C:BA9EH         LINE#         280
  C:BAA6H         LINE#         281
  C:BAA8H         LINE#         282
  C:BAB0H         LINE#         283
  C:BABDH         LINE#         284
  C:BACAH         LINE#         285
  -------         ENDPROC       LCD1602_DATETIME_UPDATE
  -------         ENDMOD        LCD1602_CLOCK

  -------         MODULE        TIMER
  C:0000H         SYMBOL        _ICE_DUMMY_
  D:0080H         PUBLIC        P0
  D:0090H         PUBLIC        P1
  D:00A0H         PUBLIC        P2
  D:00B0H         PUBLIC        P3
  D:00C0H         PUBLIC        P4
  D:00C8H         PUBLIC        P5
BL51 BANKED LINKER/LOCATER V6.22.2.0                                                  08/13/2022  23:50:26  PAGE 23


  D:00A8H         PUBLIC        IE
  D:00B8H         PUBLIC        IP
  D:00D8H         PUBLIC        CCON
  D:0098H         PUBLIC        SCON
  D:0089H         PUBLIC        TMOD
  D:0088H         PUBLIC        TCON
  D:008EH         PUBLIC        AUXR
  B:00A8H.3       PUBLIC        ET1
  B:0088H.7       PUBLIC        TF1
  C:BEBCH         PUBLIC        Timer1Init
  D:008DH         PUBLIC        TH1
  D:008BH         PUBLIC        TL1
  B:0088H.6       PUBLIC        TR1
  C:C008H         PUBLIC        Timer1_Reload
  D:00D0H         PUBLIC        PSW
  -------         PROC          TIMER1INIT
  C:BEBCH         LINE#         4
  C:BEBCH         LINE#         5
  C:BEBCH         LINE#         6
  C:BEBFH         LINE#         7
  C:BEC2H         LINE#         8
  C:BEC5H         LINE#         9
  C:BEC8H         LINE#         10
  C:BECBH         LINE#         11
  C:BECDH         LINE#         12
  C:BECFH         LINE#         14
  C:BED1H         LINE#         15
  -------         ENDPROC       TIMER1INIT
  -------         PROC          TIMER1_RELOAD
  C:C008H         LINE#         17
  C:C008H         LINE#         18
  C:C008H         LINE#         19
  C:C00AH         LINE#         20
  C:C00CH         LINE#         21
  C:C00FH         LINE#         22
  C:C012H         LINE#         23
  C:C014H         LINE#         24
  -------         ENDPROC       TIMER1_RELOAD
  -------         ENDMOD        TIMER

  -------         MODULE        LCD1602_MENU
  C:0000H         SYMBOL        _ICE_DUMMY_
  C:6D6EH         PUBLIC        Menu_TASK2_CTRL_Stop
  C:6DB2H         PUBLIC        Menu_TASK3_CTRL_Stop
  D:0008H         PUBLIC        Menu_Edit
  D:0080H         PUBLIC        P0
  C:6DF6H         PUBLIC        Menu_TASK4_CTRL_Stop
  D:0090H         PUBLIC        P1
  C:6E3AH         PUBLIC        Menu_TASK5_CTRL_Stop
  D:00A0H         PUBLIC        P2
  C:6E7EH         PUBLIC        Menu_TASK6_CTRL_Stop
  D:0009H         PUBLIC        Menu_Edit_Tips
  D:00B0H         PUBLIC        P3
  B:002BH.2       PUBLIC        Menu_Edit_Show
  D:00C0H         PUBLIC        P4
  C:708FH         PUBLIC        TASK_OverTime_AutoReset_OFF
  D:00C8H         PUBLIC        P5
BL51 BANKED LINKER/LOCATER V6.22.2.0                                                  08/13/2022  23:50:26  PAGE 24


  B:00A8H.7       PUBLIC        EA
  C:C06FH         PUBLIC        RETURN_1_5
  C:BE8EH         PUBLIC        TASK1_SET_2_13
  C:70B1H         PUBLIC        table
  C:705CH         PUBLIC        AP_IP
  D:000AH         PUBLIC        LCD1602_First_Line_6
  C:6D08H         PUBLIC        Menu_TASK1_CTRL_Run
  C:6C5EH         PUBLIC        Menu_PORT_SET
  C:BE5EH         PUBLIC        TASK2_SET_2_14
  C:6D4CH         PUBLIC        Menu_TASK2_CTRL_Run
  C:6D90H         PUBLIC        Menu_TASK3_CTRL_Run
  C:6CC4H         PUBLIC        SYSTEM_RESET_ASK
  C:BDFAH         PUBLIC        TASK3_SET_2_15
  D:00A8H         PUBLIC        IE
  C:6DD4H         PUBLIC        Menu_TASK4_CTRL_Run
  C:6E18H         PUBLIC        Menu_TASK5_CTRL_Run
  C:BE13H         PUBLIC        TASK4_SET_2_16
  C:6E5CH         PUBLIC        Menu_TASK6_CTRL_Run
  C:6CA2H         PUBLIC        SYSTEM_RESET_Select
  C:6BE7H         PUBLIC        Menu_TASKS_SET_Select
  C:2975H         PUBLIC        TASK_OnTime_SET_3_48
  C:BE2CH         PUBLIC        TASK5_SET_2_17
  C:BE45H         PUBLIC        TASK6_SET_2_18
  C:6C3CH         PUBLIC        Menu_TASKS_CTRL
  C:6FC3H         PUBLIC        SET_TIME_AUTO
  D:00B8H         PUBLIC        IP
  C:6FA1H         PUBLIC        SET_TIME_MANUAL
  C:6CD5H         PUBLIC        SYSTEM_RESET_YES
  C:6FE5H         PUBLIC        TCP_PORT_SET_Select
  C:BF62H         PUBLIC        TIME_SET_1_3
  C:BF75H         PUBLIC        WIFI_SET_1_4
  X:0248H         PUBLIC        Time_100MS
  D:00D8H         PUBLIC        CCON
  C:BC15H         PUBLIC        TASK1_CTRL_2_6
  C:B7F0H         PUBLIC        SYSTEM_RESET_1_51
  C:7018H         PUBLIC        STA_IP_Select
  C:6C2BH         PUBLIC        RETURN_Select
  C:BC46H         PUBLIC        TASK2_CTRL_2_7
  X:0259H         PUBLIC        PIN_SET_Empty
  X:0269H         PUBLIC        PIN_SET_Input
  C:BC77H         PUBLIC        TASK3_CTRL_2_8
  X:0279H         PUBLIC        PIN_SET_Output
  C:6F06H         PUBLIC        Menu_TASK1_SET
  C:970EH         PUBLIC        TIME_SET_Manual_Set_2_37
  C:BCA8H         PUBLIC        TASK4_CTRL_2_9
  C:6F17H         PUBLIC        Menu_TASK2_SET
  C:6F28H         PUBLIC        Menu_TASK3_SET
  C:6F39H         PUBLIC        Menu_TASK4_SET
  C:6F4AH         PUBLIC        Menu_TASK5_SET
  C:6F5BH         PUBLIC        Menu_TASK6_SET
  C:6F8EH         PUBLIC        Trigger_Mode_Empty
  C:9B44H         PUBLIC        TCP_PORT_SET_2_40
  D:0098H         PUBLIC        SCON
  D:0088H         PUBLIC        TCON
  C:BF4FH         PUBLIC        PORT_SET_1_2
  X:0289H         PUBLIC        TASK_StartTime
  C:001EH         PUBLIC        RETURN_2_12
BL51 BANKED LINKER/LOCATER V6.22.2.0                                                  08/13/2022  23:50:26  PAGE 25


  C:6C1AH         PUBLIC        Menu_WIFI_SET_Select
  C:6C09H         PUBLIC        Menu_TIME_SET_Select
  C:BB67H         PUBLIC        STA_IP_2_41
  C:70A0H         PUBLIC        TASK_OverTime_AutoReset_Empty
  C:C076H         PUBLIC        RETURN_3_50
  D:000DH         PUBLIC        current_operation_index
  D:0010H         PUBLIC        LCD1602_First_Line_16
  C:BF88H         PUBLIC        RETURN_2_43
  C:C07DH         PUBLIC        RETURN_2_36
  X:029AH         PUBLIC        TASK_EndTime
  C:0003H         PUBLIC        RETURN_2_19
  C:BF29H         PUBLIC        TASKS_CTRL_1_0
  C:C081H         PUBLIC        RETURN_2_39
  C:6D19H         PUBLIC        Menu_TASK1_CTRL_Stop_Select
  X:02ABH         PUBLIC        TASK_OffTime
  C:6D5DH         PUBLIC        Menu_TASK2_CTRL_Stop_Select
  D:00C7H         PUBLIC        IAP_CONTR
  C:6DA1H         PUBLIC        Menu_TASK3_CTRL_Stop_Select
  X:02BCH         PUBLIC        TASK_OverTime
  C:6DE5H         PUBLIC        Menu_TASK4_CTRL_Stop_Select
  C:707EH         PUBLIC        TASK_OverTime_AutoReset_ON
  C:6E29H         PUBLIC        Menu_TASK5_CTRL_Stop_Select
  C:6E6DH         PUBLIC        Menu_TASK6_CTRL_Stop_Select
  C:7007H         PUBLIC        TCP_SERVER_PORT
  D:0013H         PUBLIC        LCD1602_Second_Line
  C:B874H         PUBLIC        LCD1602_Show_Current_Page
  C:6CE6H         PUBLIC        SYSTEM_RESET_NO
  C:703AH         PUBLIC        STA_IP_ADDRESS
  C:6CB3H         PUBLIC        SYSTEM_RESET
  C:6C4DH         PUBLIC        Menu_TASKS_SET
  X:02CDH         PUBLIC        TASK_SET_Number
  C:704BH         PUBLIC        AP_IP_Select
  C:6F6CH         PUBLIC        Trigger_Mode_0
  C:6CF7H         PUBLIC        Menu_TASK1_CTRL_Run_Select
  C:6BF8H         PUBLIC        Menu_PORT_SET_Select
  C:6F7DH         PUBLIC        Trigger_Mode_1
  C:6D3BH         PUBLIC        Menu_TASK2_CTRL_Run_Select
  C:6D7FH         PUBLIC        Menu_TASK3_CTRL_Run_Select
  C:6DC3H         PUBLIC        Menu_TASK4_CTRL_Run_Select
  C:6E07H         PUBLIC        Menu_TASK5_CTRL_Run_Select
  C:BCD9H         PUBLIC        TASK5_CTRL_2_10
  C:6E4BH         PUBLIC        Menu_TASK6_CTRL_Run_Select
  C:BD0AH         PUBLIC        TASK6_CTRL_2_11
  I:00AAH         PUBLIC        Pin10_Number
  I:00ABH         PUBLIC        Pin20_Number
  I:00ACH         PUBLIC        Pin11_Number
  I:00ADH         PUBLIC        Pin21_Number
  I:00AEH         PUBLIC        Pin12_Number
  I:00AFH         PUBLIC        Pin22_Number
  I:00B0H         PUBLIC        Pin13_Number
  I:00B1H         PUBLIC        Pin23_Number
  I:00B2H         PUBLIC        Pin14_Number
  C:6BD6H         PUBLIC        Menu_TASKS_CTRL_Select
  I:00B3H         PUBLIC        Pin24_Number
  I:00B4H         PUBLIC        Pin15_Number
  X:02CEH         PUBLIC        TCP_PORT_Number
  C:6FF6H         PUBLIC        TCP_PORT_SET
BL51 BANKED LINKER/LOCATER V6.22.2.0                                                  08/13/2022  23:50:26  PAGE 26


  I:00B5H         PUBLIC        Pin16_Number
  C:6FD4H         PUBLIC        SET_TIME_AUTO_Select
  C:A026H         PUBLIC        LCD1602_Menu_Update
  I:00B6H         PUBLIC        Pin35_Number
  I:00B7H         PUBLIC        Pin17_Number
  I:00B8H         PUBLIC        Pin36_Number
  C:6F9FH         PUBLIC        Empty_Number
  I:00B9H         PUBLIC        Pin37_Number
  D:0016H         PUBLIC        Menu_Edit_Value
  C:9206H         PUBLIC        TASK_StartTime_SET_3_44
  C:7029H         PUBLIC        STA_IP
  C:6C91H         PUBLIC        RETURN
  C:6FB2H         PUBLIC        SET_TIME_MANUAL_Select
  B:002BH.3       PUBLIC        isReset
  C:BBA3H         PUBLIC        AP_IP_2_42
  X:02DFH         PUBLIC        TASK_OnTime
  C:BDD8H         PUBLIC        TIME_SET_Auto_Set_2_38
  X:02F0H         PUBLIC        Time_Minute
  C:948AH         PUBLIC        TASK_EndTime_SET_3_45
  C:A77AH         PUBLIC        PIN10_SET_2_20
  X:0301H         PUBLIC        SET_DATE
  C:A869H         PUBLIC        PIN11_SET_2_21
  C:6EA0H         PUBLIC        Menu_TASK1_SET_Select
  C:AFE1H         PUBLIC        PIN22_SET_2_30
  C:A958H         PUBLIC        PIN12_SET_2_22
  C:6EB1H         PUBLIC        Menu_TASK2_SET_Select
  C:1B00H         PUBLIC        TASK_OverTime_SET_3_46
  C:6EC2H         PUBLIC        Menu_TASK3_SET_Select
  C:0026H         PUBLIC        TASK_OffTime_SET_3_49
  C:B0D0H         PUBLIC        PIN23_SET_2_31
  C:AA47H         PUBLIC        PIN13_SET_2_23
  C:6ED3H         PUBLIC        Menu_TASK4_SET_Select
  D:0017H         PUBLIC        Menu_Index
  C:6EE4H         PUBLIC        Menu_TASK5_SET_Select
  D:0018H         PUBLIC        Menu_Flag
  C:B1BFH         PUBLIC        PIN24_SET_2_32
  C:AB36H         PUBLIC        PIN14_SET_2_24
  C:706DH         PUBLIC        AP_IP_ADDRESS
  C:6EF5H         PUBLIC        Menu_TASK6_SET_Select
  C:6E8FH         PUBLIC        Menu_Empty_Line
  D:0019H         PUBLIC        LCD1602_First_Line
  C:A598H         PUBLIC        PIN20_SET_2_28
  C:6C80H         PUBLIC        Menu_WIFI_SET
  C:6C6FH         PUBLIC        Menu_TIME_SET
  C:AC25H         PUBLIC        PIN15_SET_2_25
  C:A689H         PUBLIC        PIN35_SET_2_33
  C:AEF2H         PUBLIC        PIN21_SET_2_29
  C:AD14H         PUBLIC        PIN16_SET_2_26
  C:BF3CH         PUBLIC        TASKS_SET_1_1
  C:A17CH         PUBLIC        TASK_OverTime_MODE_SET_3_47
  C:A2B2H         PUBLIC        PIN36_SET_2_34
  C:AE03H         PUBLIC        PIN17_SET_2_27
  C:A4A2H         PUBLIC        PIN37_SET_2_35
  D:00D0H         PUBLIC        PSW
  X:0312H         PUBLIC        SET_TIME
  C:6D2AH         PUBLIC        Menu_TASK1_CTRL_Stop
  C:44D4H         SYMBOL        Com05C6
BL51 BANKED LINKER/LOCATER V6.22.2.0                                                  08/13/2022  23:50:26  PAGE 27


  C:44D4H         SYMBOL        L?1479
  C:4602H         SYMBOL        L?1480
  C:4605H         SYMBOL        L?1481
  C:4609H         SYMBOL        L?1482
  C:460FH         SYMBOL        L?1483
  C:4623H         SYMBOL        L?1484
  C:462CH         SYMBOL        L?1485
  C:4631H         SYMBOL        L?1486
  C:4632H         SYMBOL        L?1487
  C:4638H         SYMBOL        L?1488
  C:463BH         SYMBOL        L?1489
  C:463EH         SYMBOL        L?1490
  C:463FH         SYMBOL        L?1491
  C:4641H         SYMBOL        L?1492
  C:4642H         SYMBOL        L?1493
  C:4645H         SYMBOL        L?1494
  C:4648H         SYMBOL        L?1495
  C:4654H         SYMBOL        L?1496
  C:4654H         SYMBOL        L?1497
  C:4657H         SYMBOL        L?1498
  C:465AH         SYMBOL        L?1499
  C:465BH         SYMBOL        L?1500
  C:4662H         SYMBOL        L?1501
  C:4672H         SYMBOL        L?1502
  C:4695H         SYMBOL        L?1503
  C:4695H         SYMBOL        L?1504
  C:46A6H         SYMBOL        L?1505
  C:46B6H         SYMBOL        L?1506
  C:46D9H         SYMBOL        L?1507
  C:46E9H         SYMBOL        L?1508
  C:470CH         SYMBOL        L?1509
  C:471CH         SYMBOL        L?1510
  C:473FH         SYMBOL        L?1511
  C:474FH         SYMBOL        L?1512
  C:4772H         SYMBOL        L?1513
  C:4782H         SYMBOL        L?1514
  C:47A5H         SYMBOL        L?1515
  C:47C8H         SYMBOL        L?1516
  C:47EBH         SYMBOL        L?1517
  C:480EH         SYMBOL        L?1518
  C:480EH         SYMBOL        L?1519
  C:4811H         SYMBOL        L?1520
  C:4820H         SYMBOL        L?1521
  C:4820H         SYMBOL        L?1522
  C:4823H         SYMBOL        L?1523
  C:4832H         SYMBOL        L?1524
  C:4832H         SYMBOL        L?1525
  C:4835H         SYMBOL        L?1526
  C:4844H         SYMBOL        L?1527
  C:4844H         SYMBOL        L?1528
  C:4846H         SYMBOL        L?1529
  C:484FH         SYMBOL        L?1530
  C:4859H         SYMBOL        L?1531
  C:485EH         SYMBOL        L?1532
  C:4860H         SYMBOL        L?1533
  C:4863H         SYMBOL        L?1534
  C:486EH         SYMBOL        L?1535
BL51 BANKED LINKER/LOCATER V6.22.2.0                                                  08/13/2022  23:50:26  PAGE 28


  C:486EH         SYMBOL        L?1536
  C:4871H         SYMBOL        L?1537
  C:4880H         SYMBOL        L?1538
  C:4880H         SYMBOL        L?1539
  C:48A1H         SYMBOL        L?1540
  C:48A4H         SYMBOL        L?1541
  C:48ADH         SYMBOL        L?1542
  C:48B4H         SYMBOL        L?1543
  C:48B4H         SYMBOL        L?1544
  C:48BDH         SYMBOL        L?1545
  C:48BDH         SYMBOL        L?1546
  C:48C0H         SYMBOL        L?1547
  C:48CFH         SYMBOL        L?1548
  C:48CFH         SYMBOL        L?1549
  C:48D2H         SYMBOL        L?1550
  C:48DAH         SYMBOL        L?1551
  C:48DAH         SYMBOL        L?1552
  C:48DCH         SYMBOL        L?1553
  C:48E8H         SYMBOL        L?1554
  C:48E8H         SYMBOL        L?1555
  C:48EBH         SYMBOL        L?1556
  C:48FAH         SYMBOL        L?1557
  C:48FAH         SYMBOL        L?1558
  C:48FCH         SYMBOL        L?1559
  C:4908H         SYMBOL        L?1560
  C:4908H         SYMBOL        L?1561
  C:4912H         SYMBOL        L?1562
  C:4912H         SYMBOL        L?1563
  C:491CH         SYMBOL        L?1564
  C:491CH         SYMBOL        L?1565
  C:491FH         SYMBOL        L?1566
  C:492EH         SYMBOL        L?1567
  C:492EH         SYMBOL        L?1568
  C:4930H         SYMBOL        L?1569
  C:493CH         SYMBOL        L?1570
  C:493CH         SYMBOL        L?1571
  C:493FH         SYMBOL        L?1572
  C:494EH         SYMBOL        L?1573
  C:494EH         SYMBOL        L?1574
  C:4956H         SYMBOL        L?1575
  C:4965H         SYMBOL        L?1576
  C:4965H         SYMBOL        L?1577
  C:4967H         SYMBOL        L?1578
  C:4973H         SYMBOL        L?1579
  C:4973H         SYMBOL        L?1580
  C:4976H         SYMBOL        L?1581
  C:4985H         SYMBOL        L?1582
  C:498EH         SYMBOL        L?1583
  C:499DH         SYMBOL        L?1584
  C:499DH         SYMBOL        L?1585
  C:499FH         SYMBOL        L?1586
  C:49ABH         SYMBOL        L?1587
  C:49ABH         SYMBOL        L?1588
  C:49AEH         SYMBOL        L?1589
  C:49BDH         SYMBOL        L?1590
  C:49BDH         SYMBOL        L?1591
  C:49C4H         SYMBOL        L?1592
BL51 BANKED LINKER/LOCATER V6.22.2.0                                                  08/13/2022  23:50:26  PAGE 29


  C:49CBH         SYMBOL        L?1593
  C:49CBH         SYMBOL        L?1594
  C:49D8H         SYMBOL        L?1595
  C:49D8H         SYMBOL        L?1596
  C:49E2H         SYMBOL        L?1597
  C:49E2H         SYMBOL        L?1598
  C:49E5H         SYMBOL        L?1599
  C:49F0H         SYMBOL        L?1600
  C:49F0H         SYMBOL        L?1601
  C:49FAH         SYMBOL        L?1602
  C:49FAH         SYMBOL        L?1603
  C:4A04H         SYMBOL        L?1604
  C:4A04H         SYMBOL        L?1605
  C:4A07H         SYMBOL        L?1606
  C:4A16H         SYMBOL        L?1607
  C:4A16H         SYMBOL        L?1608
  C:4A18H         SYMBOL        L?1609
  C:4A24H         SYMBOL        L?1610
  C:4A2FH         SYMBOL        L?1611
  C:4A2FH         SYMBOL        L?1612
  C:4A39H         SYMBOL        L?1613
  C:4A39H         SYMBOL        L?1614
  C:4A3CH         SYMBOL        L?1615
  C:4A4BH         SYMBOL        L?1616
  C:4A4BH         SYMBOL        L?1617
  C:4A4EH         SYMBOL        L?1618
  C:4A55H         SYMBOL        L?1619
  C:4A58H         SYMBOL        L?1620
  C:4A63H         SYMBOL        L?1621
  C:4A63H         SYMBOL        L?1622
  C:4A6AH         SYMBOL        L?1623
  C:4A6AH         SYMBOL        L?1624
  C:4A6CH         SYMBOL        L?1625
  C:4A78H         SYMBOL        L?1626
  C:4A78H         SYMBOL        L?1627
  C:4A7FH         SYMBOL        L?1628
  C:4A8BH         SYMBOL        L?1629
  C:4A8BH         SYMBOL        L?1630
  C:4A8EH         SYMBOL        L?1631
  C:4A99H         SYMBOL        L?1632
  C:4A99H         SYMBOL        L?1633
  C:4AA3H         SYMBOL        L?1634
  C:4AA3H         SYMBOL        L?1635
  C:4AADH         SYMBOL        L?1636
  C:4AADH         SYMBOL        L?1637
  C:4AB7H         SYMBOL        L?1638
  C:4AB7H         SYMBOL        L?1639
  C:4AC1H         SYMBOL        L?1640
  C:4AC1H         SYMBOL        L?1641
  C:4AC4H         SYMBOL        L?1642
  C:4AD3H         SYMBOL        L?1643
  C:4AD3H         SYMBOL        L?1644
  C:4ADAH         SYMBOL        L?1645
  C:4ADAH         SYMBOL        L?1646
  C:4ADDH         SYMBOL        L?1647
  C:4AF0H         SYMBOL        L?1648
  C:4AF9H         SYMBOL        L?1649
BL51 BANKED LINKER/LOCATER V6.22.2.0                                                  08/13/2022  23:50:26  PAGE 30


  C:4AF9H         SYMBOL        L?1650
  C:4AFEH         SYMBOL        L?1651
  C:4B07H         SYMBOL        L?1652
  C:4B07H         SYMBOL        L?1653
  C:4B0EH         SYMBOL        L?1654
  C:4B0EH         SYMBOL        L?1655
  C:4B15H         SYMBOL        L?1656
  C:4B24H         SYMBOL        L?1657
  C:4B2BH         SYMBOL        L?1658
  C:4B2BH         SYMBOL        L?1659
  C:4B32H         SYMBOL        L?1660
  C:4B32H         SYMBOL        L?1661
  C:4B39H         SYMBOL        L?1662
  C:4B42H         SYMBOL        L?1663
  C:4B42H         SYMBOL        L?1664
  C:4B49H         SYMBOL        L?1665
  C:4B49H         SYMBOL        L?1666
  C:4B50H         SYMBOL        L?1667
  C:4B50H         SYMBOL        L?1668
  C:4B57H         SYMBOL        L?1669
  C:4B57H         SYMBOL        L?1670
  C:4B5EH         SYMBOL        L?1671
  C:4B5EH         SYMBOL        L?1672
  C:4B61H         SYMBOL        L?1673
  C:4B6CH         SYMBOL        L?1674
  C:4B75H         SYMBOL        L?1675
  C:4B75H         SYMBOL        L?1676
  C:4B89H         SYMBOL        L?1677
  C:4B92H         SYMBOL        L?1678
  C:4BA1H         SYMBOL        L?1679
  C:4BAAH         SYMBOL        L?1680
  C:4BB6H         SYMBOL        L?1681
  C:4BBEH         SYMBOL        L?1682
  C:4BBEH         SYMBOL        L?1683
  C:4BCBH         SYMBOL        L?1684
  C:4BD4H         SYMBOL        L?1685
  C:4BE0H         SYMBOL        L?1686
  C:4BE8H         SYMBOL        L?1687
  C:4BE8H         SYMBOL        L?1688
  C:4BF2H         SYMBOL        L?1689
  C:4BF2H         SYMBOL        L?1690
  C:4BFCH         SYMBOL        L?1691
  C:4BFCH         SYMBOL        L?1692
  C:4C06H         SYMBOL        L?1693
  C:4C06H         SYMBOL        L?1694
  C:4C10H         SYMBOL        L?1695
  C:4C10H         SYMBOL        L?1696
  C:4C1AH         SYMBOL        L?1697
  C:4C1AH         SYMBOL        L?1698
  C:4C24H         SYMBOL        L?1699
  C:4C24H         SYMBOL        L?1700
  C:4C2EH         SYMBOL        L?1701
  C:4C2EH         SYMBOL        L?1702
  C:4C38H         SYMBOL        L?1703
  C:4C38H         SYMBOL        L?1704
  C:4C42H         SYMBOL        L?1705
  C:4C42H         SYMBOL        L?1706
BL51 BANKED LINKER/LOCATER V6.22.2.0                                                  08/13/2022  23:50:26  PAGE 31


  C:4C4CH         SYMBOL        L?1707
  C:4C4CH         SYMBOL        L?1708
  C:4C56H         SYMBOL        L?1709
  C:4C56H         SYMBOL        L?1710
  C:4C60H         SYMBOL        L?1711
  C:4C60H         SYMBOL        L?1712
  C:4C6AH         SYMBOL        L?1713
  C:4C6AH         SYMBOL        L?1714
  C:4C74H         SYMBOL        L?1715
  C:4C74H         SYMBOL        L?1716
  C:4C7EH         SYMBOL        L?1717
  C:4C7EH         SYMBOL        L?1718
  C:4C88H         SYMBOL        L?1719
  C:4C90H         SYMBOL        L?1720
  C:4C97H         SYMBOL        L?1721
  C:4C97H         SYMBOL        L?1722
  C:4C9EH         SYMBOL        L?1723
  C:4CA7H         SYMBOL        L?1724
  C:4CA7H         SYMBOL        L?1725
  C:4CB2H         SYMBOL        L?1726
  C:4CC4H         SYMBOL        L?1727
  C:4CC4H         SYMBOL        L?1728
  C:4CCBH         SYMBOL        L?1729
  C:4CCBH         SYMBOL        L?1730
  C:4CD3H         SYMBOL        L?1731
  C:4CD3H         SYMBOL        L?1732
  C:4CDBH         SYMBOL        L?1733
  C:4CEAH         SYMBOL        L?1734
  C:4CEAH         SYMBOL        L?1735
  C:4CF1H         SYMBOL        L?1736
  C:4CF1H         SYMBOL        L?1737
  C:4CF8H         SYMBOL        L?1738
  C:4CF8H         SYMBOL        L?1739
  C:4CFFH         SYMBOL        L?1740
  C:4D00H         SYMBOL        L?1741
  C:4D08H         SYMBOL        L?1742
  C:4D15H         SYMBOL        L?1743
  C:4D21H         SYMBOL        L?1744
  C:4D21H         SYMBOL        L?1745
  C:4D28H         SYMBOL        L?1746
  C:4D32H         SYMBOL        L?1747
  C:4D3CH         SYMBOL        L?1748
  C:4D46H         SYMBOL        L?1749
  C:4D50H         SYMBOL        L?1750
  C:4D5AH         SYMBOL        L?1751
  C:4D64H         SYMBOL        L?1752
  C:4D6EH         SYMBOL        L?1753
  C:4D78H         SYMBOL        L?1754
  C:4D82H         SYMBOL        L?1755
  C:4D8CH         SYMBOL        L?1756
  C:4D96H         SYMBOL        L?1757
  C:4DA0H         SYMBOL        L?1758
  C:4DAAH         SYMBOL        L?1759
  C:4DB4H         SYMBOL        L?1760
  -------         PROC          COM05C6
  -------         ENDPROC       COM05C6
  -------         PROC          LCD1602_MENU_UPDATE
BL51 BANKED LINKER/LOCATER V6.22.2.0                                                  08/13/2022  23:50:26  PAGE 32


  C:A026H         LINE#         444
  C:A026H         LINE#         445
  C:A026H         LINE#         448
  C:A02EH         LINE#         449
  C:A02EH         LINE#         450
  C:A030H         LINE#         451
  C:A032H         LINE#         452
  C:A032H         LINE#         456
  C:A042H         LINE#         457
  C:A042H         LINE#         458
  C:A042H         LINE#         459
  C:A055H         LINE#         460
  C:A055H         LINE#         461
  C:A055H         LINE#         462
  C:A055H         LINE#         463
  C:A057H         LINE#         464
  C:A057H         LINE#         465
  C:A057H         LINE#         466
  C:A059H         LINE#         467
  C:A059H         LINE#         468
  C:A059H         LINE#         469
  C:A05BH         LINE#         470
  C:A05BH         LINE#         471
  C:A05BH         LINE#         472
  C:A05DH         LINE#         473
  C:A05DH         LINE#         475
  C:A05DH         LINE#         476
  C:A05DH         LINE#         477
  C:A06BH         LINE#         478
  C:A06BH         LINE#         479
  C:A06BH         LINE#         481
  C:A06BH         LINE#         482
  C:A06EH         LINE#         483
  C:A06EH         LINE#         484
  C:A081H         LINE#         485
  C:A081H         LINE#         486
  C:A081H         LINE#         487
  C:A081H         LINE#         488
  C:A083H         LINE#         489
  C:A083H         LINE#         490
  C:A083H         LINE#         491
  C:A085H         LINE#         492
  C:A085H         LINE#         493
  C:A085H         LINE#         494
  C:A087H         LINE#         495
  C:A087H         LINE#         496
  C:A087H         LINE#         497
  C:A089H         LINE#         498
  C:A089H         LINE#         500
  C:A089H         LINE#         501
  C:A089H         LINE#         502
  C:A097H         LINE#         503
  C:A097H         LINE#         504
  C:A097H         LINE#         507
  C:A097H         LINE#         508
  C:A09AH         LINE#         509
  C:A09AH         LINE#         512
BL51 BANKED LINKER/LOCATER V6.22.2.0                                                  08/13/2022  23:50:26  PAGE 33


  C:A0B2H         LINE#         513
  C:A0B2H         LINE#         514
  C:A0B2H         LINE#         516
  C:A0C3H         LINE#         517
  C:A0C5H         LINE#         518
  C:A0C8H         LINE#         519
  C:A0CAH         LINE#         520
  C:A0CAH         LINE#         522
  C:A0D8H         LINE#         523
  C:A0DAH         LINE#         524
  C:A0DAH         LINE#         526
  C:A0E0H         LINE#         527
  C:A0E0H         LINE#         528
  C:A0E5H         LINE#         529
  C:A0E5H         LINE#         530
  C:A0E5H         LINE#         532
  C:A0E5H         LINE#         533
  C:A0FBH         LINE#         534
  C:A0FBH         LINE#         535
  C:A0FFH         LINE#         536
  C:A103H         LINE#         537
  C:A107H         LINE#         538
  C:A10BH         LINE#         539
  C:A10FH         LINE#         540
  C:A113H         LINE#         541
  C:A113H         LINE#         542
  C:A113H         LINE#         544
  C:A113H         LINE#         545
  C:A115H         LINE#         546
  C:A117H         LINE#         547
  C:A117H         LINE#         548
  C:A119H         LINE#         549
  C:A11BH         LINE#         550
  C:A11BH         LINE#         551
  C:A124H         LINE#         552
  C:A139H         LINE#         553
  C:A139H         LINE#         554
  C:A139H         LINE#         555
  C:A13CH         LINE#         556
  C:A13EH         LINE#         557
  C:A13EH         LINE#         558
  C:A141H         LINE#         559
  C:A143H         LINE#         560
  C:A143H         LINE#         561
  C:A146H         LINE#         562
  C:A148H         LINE#         563
  C:A148H         LINE#         564
  C:A14BH         LINE#         565
  C:A14DH         LINE#         566
  C:A14DH         LINE#         567
  C:A150H         LINE#         568
  C:A152H         LINE#         569
  C:A152H         LINE#         570
  C:A155H         LINE#         571
  C:A155H         LINE#         572
  C:A155H         LINE#         574
  C:A155H         LINE#         575
BL51 BANKED LINKER/LOCATER V6.22.2.0                                                  08/13/2022  23:50:26  PAGE 34


  C:A155H         LINE#         577
  C:A158H         LINE#         578
  C:A158H         LINE#         579
  C:A158H         LINE#         582
  C:A176H         LINE#         583
  C:A179H         LINE#         586
  -------         ENDPROC       LCD1602_MENU_UPDATE
  -------         PROC          LCD1602_SHOW_CURRENT_PAGE
  C:B874H         LINE#         596
  C:B874H         LINE#         597
  C:B874H         LINE#         598
  C:B89FH         LINE#         599
  C:B8A4H         LINE#         600
  C:B8A4H         LINE#         601
  C:B8BEH         LINE#         602
  C:B8C8H         LINE#         603
  C:B8D5H         LINE#         604
  C:B8E2H         LINE#         605
  C:B8E2H         LINE#         607
  -------         ENDPROC       LCD1602_SHOW_CURRENT_PAGE
  -------         PROC          TASKS_CTRL_1_0
  C:BF29H         LINE#         621
  C:BF29H         LINE#         622
  C:BF29H         LINE#         623
  C:BF29H         LINE#         624
  C:BF32H         LINE#         625
  C:BF3BH         LINE#         626
  -------         ENDPROC       TASKS_CTRL_1_0
  -------         PROC          TASKS_SET_1_1
  C:BF3CH         LINE#         627
  C:BF3CH         LINE#         628
  C:BF3CH         LINE#         629
  C:BF3CH         LINE#         630
  C:BF45H         LINE#         631
  C:BF4EH         LINE#         632
  -------         ENDPROC       TASKS_SET_1_1
  -------         PROC          PORT_SET_1_2
  C:BF4FH         LINE#         633
  C:BF4FH         LINE#         634
  C:BF4FH         LINE#         635
  C:BF4FH         LINE#         636
  C:BF58H         LINE#         637
  C:BF61H         LINE#         638
  -------         ENDPROC       PORT_SET_1_2
  -------         PROC          TIME_SET_1_3
  C:BF62H         LINE#         639
  C:BF62H         LINE#         640
  C:BF62H         LINE#         641
  C:BF62H         LINE#         642
  C:BF6BH         LINE#         643
  C:BF74H         LINE#         644
  -------         ENDPROC       TIME_SET_1_3
  -------         PROC          WIFI_SET_1_4
  C:BF75H         LINE#         645
  C:BF75H         LINE#         646
  C:BF75H         LINE#         647
  C:BF75H         LINE#         648
BL51 BANKED LINKER/LOCATER V6.22.2.0                                                  08/13/2022  23:50:26  PAGE 35


  C:BF7EH         LINE#         649
  C:BF87H         LINE#         650
  -------         ENDPROC       WIFI_SET_1_4
  -------         PROC          SYSTEM_RESET_1_51
  C:B7F0H         LINE#         652
  C:B7F0H         LINE#         653
  C:B7F0H         LINE#         655
  C:B802H         LINE#         658
  C:B80EH         LINE#         659
  C:B80EH         LINE#         660
  C:B80EH         LINE#         662
  C:B80EH         LINE#         665
  C:B811H         LINE#         668
  C:B81AH         LINE#         669
  C:B823H         LINE#         671
  C:B824H         LINE#         673
  C:B824H         LINE#         674
  C:B824H         LINE#         677
  C:B82EH         LINE#         678
  C:B830H         LINE#         679
  C:B837H         LINE#         680
  C:B839H         LINE#         681
  C:B839H         LINE#         684
  C:B83CH         LINE#         687
  C:B845H         LINE#         689
  C:B848H         LINE#         690
  C:B851H         LINE#         691
  C:B852H         LINE#         692
  C:B85BH         LINE#         693
  C:B85BH         LINE#         695
  C:B85CH         LINE#         697
  C:B85CH         LINE#         698
  C:B85CH         LINE#         701
  C:B85FH         LINE#         703
  C:B862H         LINE#         704
  C:B864H         LINE#         705
  C:B867H         LINE#         706
  C:B86AH         LINE#         707
  C:B86DH         LINE#         708
  C:B86FH         LINE#         709
  C:B870H         LINE#         710
  C:B873H         LINE#         711
  C:B873H         LINE#         713
  C:B873H         LINE#         715
  -------         ENDPROC       SYSTEM_RESET_1_51
  -------         PROC          RETURN_1_5
  C:C06FH         LINE#         717
  C:C06FH         LINE#         718
  C:C06FH         LINE#         719
  C:C072H         LINE#         721
  C:C072H         LINE#         722
  C:C075H         LINE#         723
  -------         ENDPROC       RETURN_1_5
  -------         PROC          TASK1_CTRL_2_6
  C:BC15H         LINE#         730
  C:BC15H         LINE#         731
  C:BC15H         LINE#         732
BL51 BANKED LINKER/LOCATER V6.22.2.0                                                  08/13/2022  23:50:26  PAGE 36


  C:BC18H         LINE#         734
  C:BC1BH         LINE#         735
  C:BC24H         LINE#         736
  C:BC26H         LINE#         737
  C:BC2FH         LINE#         738
  C:BC2FH         LINE#         740
  C:BC32H         LINE#         741
  C:BC3BH         LINE#         742
  C:BC3CH         LINE#         743
  C:BC45H         LINE#         744
  C:BC45H         LINE#         745
  -------         ENDPROC       TASK1_CTRL_2_6
  -------         PROC          TASK2_CTRL_2_7
  C:BC46H         LINE#         746
  C:BC46H         LINE#         747
  C:BC46H         LINE#         748
  C:BC49H         LINE#         749
  C:BC4CH         LINE#         750
  C:BC55H         LINE#         751
  C:BC57H         LINE#         752
  C:BC60H         LINE#         753
  C:BC60H         LINE#         755
  C:BC63H         LINE#         756
  C:BC6CH         LINE#         757
  C:BC6DH         LINE#         758
  C:BC76H         LINE#         759
  C:BC76H         LINE#         760
  -------         ENDPROC       TASK2_CTRL_2_7
  -------         PROC          TASK3_CTRL_2_8
  C:BC77H         LINE#         761
  C:BC77H         LINE#         762
  C:BC77H         LINE#         763
  C:BC7AH         LINE#         764
  C:BC7DH         LINE#         765
  C:BC86H         LINE#         766
  C:BC88H         LINE#         767
  C:BC91H         LINE#         768
  C:BC91H         LINE#         770
  C:BC94H         LINE#         771
  C:BC9DH         LINE#         772
  C:BC9EH         LINE#         773
  C:BCA7H         LINE#         774
  C:BCA7H         LINE#         775
  -------         ENDPROC       TASK3_CTRL_2_8
  -------         PROC          TASK4_CTRL_2_9
  C:BCA8H         LINE#         776
  C:BCA8H         LINE#         777
  C:BCA8H         LINE#         778
  C:BCABH         LINE#         779
  C:BCAEH         LINE#         780
  C:BCB7H         LINE#         781
  C:BCB9H         LINE#         782
  C:BCC2H         LINE#         783
  C:BCC2H         LINE#         785
  C:BCC5H         LINE#         786
  C:BCCEH         LINE#         787
  C:BCCFH         LINE#         788
BL51 BANKED LINKER/LOCATER V6.22.2.0                                                  08/13/2022  23:50:26  PAGE 37


  C:BCD8H         LINE#         789
  C:BCD8H         LINE#         790
  -------         ENDPROC       TASK4_CTRL_2_9
  -------         PROC          TASK5_CTRL_2_10
  C:BCD9H         LINE#         791
  C:BCD9H         LINE#         792
  C:BCD9H         LINE#         793
  C:BCDCH         LINE#         794
  C:BCDFH         LINE#         795
  C:BCE8H         LINE#         796
  C:BCEAH         LINE#         797
  C:BCF3H         LINE#         798
  C:BCF3H         LINE#         800
  C:BCF6H         LINE#         801
  C:BCFFH         LINE#         802
  C:BD00H         LINE#         803
  C:BD09H         LINE#         804
  C:BD09H         LINE#         805
  -------         ENDPROC       TASK5_CTRL_2_10
  -------         PROC          TASK6_CTRL_2_11
  C:BD0AH         LINE#         806
  C:BD0AH         LINE#         807
  C:BD0AH         LINE#         808
  C:BD0DH         LINE#         809
  C:BD10H         LINE#         810
  C:BD19H         LINE#         811
  C:BD1BH         LINE#         812
  C:BD24H         LINE#         813
  C:BD24H         LINE#         815
  C:BD27H         LINE#         816
  C:BD30H         LINE#         817
  C:BD31H         LINE#         818
  C:BD3AH         LINE#         819
  C:BD3AH         LINE#         820
  -------         ENDPROC       TASK6_CTRL_2_11
  -------         PROC          RETURN_2_12
  C:001EH         LINE#         821
  C:001EH         LINE#         822
  C:001EH         LINE#         823
  C:001EH         LINE#         824
  C:001EH         LINE#         825
  C:0021H         LINE#         826
  -------         ENDPROC       RETURN_2_12
  -------         PROC          TASK1_SET_2_13
  C:BE8EH         LINE#         832
  C:BE8EH         LINE#         833
  C:BE8EH         LINE#         834
  C:BE91H         LINE#         836
  C:BE92H         LINE#         838
  C:BE9BH         LINE#         839
  C:BEA4H         LINE#         840
  -------         ENDPROC       TASK1_SET_2_13
  -------         PROC          TASK2_SET_2_14
  C:BE5EH         LINE#         841
  C:BE5EH         LINE#         842
  C:BE5EH         LINE#         843
  C:BE61H         LINE#         845
BL51 BANKED LINKER/LOCATER V6.22.2.0                                                  08/13/2022  23:50:26  PAGE 38


  C:BE63H         LINE#         847
  C:BE6CH         LINE#         848
  C:BE75H         LINE#         849
  -------         ENDPROC       TASK2_SET_2_14
  -------         PROC          TASK3_SET_2_15
  C:BDFAH         LINE#         850
  C:BDFAH         LINE#         851
  C:BDFAH         LINE#         852
  C:BDFAH         LINE#         854
  C:BE00H         LINE#         856
  C:BE09H         LINE#         857
  C:BE12H         LINE#         858
  -------         ENDPROC       TASK3_SET_2_15
  -------         PROC          TASK4_SET_2_16
  C:BE13H         LINE#         859
  C:BE13H         LINE#         860
  C:BE13H         LINE#         861
  C:BE13H         LINE#         863
  C:BE19H         LINE#         865
  C:BE22H         LINE#         866
  C:BE2BH         LINE#         867
  -------         ENDPROC       TASK4_SET_2_16
  -------         PROC          TASK5_SET_2_17
  C:BE2CH         LINE#         868
  C:BE2CH         LINE#         869
  C:BE2CH         LINE#         870
  C:BE2CH         LINE#         872
  C:BE32H         LINE#         874
  C:BE3BH         LINE#         875
  C:BE44H         LINE#         876
  -------         ENDPROC       TASK5_SET_2_17
  -------         PROC          TASK6_SET_2_18
  C:BE45H         LINE#         877
  C:BE45H         LINE#         878
  C:BE45H         LINE#         879
  C:BE45H         LINE#         881
  C:BE4BH         LINE#         883
  C:BE54H         LINE#         884
  C:BE5DH         LINE#         885
  -------         ENDPROC       TASK6_SET_2_18
  -------         PROC          RETURN_2_19
  C:0003H         LINE#         886
  C:0003H         LINE#         887
  C:0003H         LINE#         888
  C:0003H         LINE#         890
  C:0007H         LINE#         892
  C:0007H         LINE#         893
  C:000AH         LINE#         894
  -------         ENDPROC       RETURN_2_19
  -------         PROC          PIN10_SET_2_20
  C:A77AH         LINE#         899
  C:A77AH         LINE#         900
  C:A77AH         LINE#         902
  C:A77FH         LINE#         905
  C:A786H         LINE#         908
  C:A79BH         LINE#         909
  C:A79BH         LINE#         910
BL51 BANKED LINKER/LOCATER V6.22.2.0                                                  08/13/2022  23:50:26  PAGE 39


  C:A79BH         LINE#         912
  C:A79BH         LINE#         915
  C:A79EH         LINE#         920
  C:A7A1H         LINE#         921
  C:A7A4H         LINE#         922
  C:A7A6H         LINE#         923
  C:A7A9H         LINE#         924
  C:A7A9H         LINE#         927
  C:A7ACH         LINE#         930
  C:A7AFH         LINE#         931
  C:A7AFH         LINE#         932
  C:A7B2H         LINE#         938
  C:A7B2H         LINE#         940
  C:A7B2H         LINE#         944
  C:A7BCH         LINE#         945
  C:A7BEH         LINE#         946
  C:A7C5H         LINE#         947
  C:A7C7H         LINE#         948
  C:A7C7H         LINE#         951
  C:A7CAH         LINE#         955
  C:A7CDH         LINE#         957
  C:A7D0H         LINE#         958
  C:A7D3H         LINE#         959
  C:A7D5H         LINE#         960
  C:A7D8H         LINE#         961
  C:A7D8H         LINE#         963
  C:A7DAH         LINE#         965
  C:A7DDH         LINE#         967
  C:A7DDH         LINE#         972
  C:A7E0H         LINE#         975
  C:A7E3H         LINE#         976
  C:A7E3H         LINE#         977
  C:A7E5H         LINE#         978
  C:A7E5H         LINE#         979
  C:A7E5H         LINE#         980
  C:A7E7H         LINE#         982
  C:A7E7H         LINE#         984
  C:A7EAH         LINE#         987
  C:A7EDH         LINE#         989
  C:A7EDH         LINE#         992
  C:A7F7H         LINE#         993
  C:A802H         LINE#         997
  C:A805H         LINE#         998
  C:A808H         LINE#         999
  C:A80AH         LINE#         1000
  C:A80DH         LINE#         1001
  C:A80DH         LINE#         1005
  C:A810H         LINE#         1006
  C:A813H         LINE#         1007
  C:A815H         LINE#         1008
  C:A818H         LINE#         1009
  C:A818H         LINE#         1012
  C:A81BH         LINE#         1013
  C:A81EH         LINE#         1014
  C:A820H         LINE#         1015
  C:A823H         LINE#         1016
  C:A823H         LINE#         1018
BL51 BANKED LINKER/LOCATER V6.22.2.0                                                  08/13/2022  23:50:26  PAGE 40


  C:A825H         LINE#         1020
  C:A825H         LINE#         1022
  C:A825H         LINE#         1026
  C:A82FH         LINE#         1027
  C:A831H         LINE#         1028
  C:A838H         LINE#         1029
  C:A83AH         LINE#         1030
  C:A83AH         LINE#         1033
  C:A83DH         LINE#         1037
  C:A840H         LINE#         1038
  C:A843H         LINE#         1039
  C:A846H         LINE#         1040
  C:A848H         LINE#         1041
  C:A84BH         LINE#         1042
  C:A84BH         LINE#         1043
  C:A84DH         LINE#         1044
  C:A850H         LINE#         1045
  C:A850H         LINE#         1049
  C:A853H         LINE#         1050
  C:A856H         LINE#         1051
  C:A858H         LINE#         1052
  C:A85BH         LINE#         1053
  C:A85BH         LINE#         1056
  C:A85EH         LINE#         1059
  C:A85EH         LINE#         1061
  C:A85EH         LINE#         1063
  C:A861H         LINE#         1064
  -------         ENDPROC       PIN10_SET_2_20
  -------         PROC          PIN11_SET_2_21
  C:A869H         LINE#         1067
  C:A869H         LINE#         1068
  C:A869H         LINE#         1070
  C:A86EH         LINE#         1073
  C:A875H         LINE#         1076
  C:A88AH         LINE#         1077
  C:A88AH         LINE#         1078
  C:A88AH         LINE#         1080
  C:A88AH         LINE#         1083
  C:A88DH         LINE#         1088
  C:A890H         LINE#         1089
  C:A893H         LINE#         1090
  C:A895H         LINE#         1091
  C:A898H         LINE#         1092
  C:A898H         LINE#         1095
  C:A89BH         LINE#         1098
  C:A89EH         LINE#         1099
  C:A89EH         LINE#         1100
  C:A8A1H         LINE#         1106
  C:A8A1H         LINE#         1108
  C:A8A1H         LINE#         1112
  C:A8ABH         LINE#         1113
  C:A8ADH         LINE#         1114
  C:A8B4H         LINE#         1115
  C:A8B6H         LINE#         1116
  C:A8B6H         LINE#         1119
  C:A8B9H         LINE#         1123
  C:A8BCH         LINE#         1125
BL51 BANKED LINKER/LOCATER V6.22.2.0                                                  08/13/2022  23:50:26  PAGE 41


  C:A8BFH         LINE#         1126
  C:A8C2H         LINE#         1127
  C:A8C4H         LINE#         1128
  C:A8C7H         LINE#         1129
  C:A8C7H         LINE#         1131
  C:A8C9H         LINE#         1133
  C:A8CCH         LINE#         1135
  C:A8CCH         LINE#         1140
  C:A8CFH         LINE#         1143
  C:A8D2H         LINE#         1144
  C:A8D2H         LINE#         1145
  C:A8D4H         LINE#         1146
  C:A8D4H         LINE#         1147
  C:A8D4H         LINE#         1148
  C:A8D6H         LINE#         1150
  C:A8D6H         LINE#         1152
  C:A8D9H         LINE#         1155
  C:A8DCH         LINE#         1157
  C:A8DCH         LINE#         1160
  C:A8E6H         LINE#         1161
  C:A8F1H         LINE#         1165
  C:A8F4H         LINE#         1166
  C:A8F7H         LINE#         1167
  C:A8F9H         LINE#         1168
  C:A8FCH         LINE#         1169
  C:A8FCH         LINE#         1173
  C:A8FFH         LINE#         1174
  C:A902H         LINE#         1175
  C:A904H         LINE#         1176
  C:A907H         LINE#         1177
  C:A907H         LINE#         1180
  C:A90AH         LINE#         1181
  C:A90DH         LINE#         1182
  C:A90FH         LINE#         1183
  C:A912H         LINE#         1184
  C:A912H         LINE#         1186
  C:A914H         LINE#         1188
  C:A914H         LINE#         1190
  C:A914H         LINE#         1194
  C:A91EH         LINE#         1195
  C:A920H         LINE#         1196
  C:A927H         LINE#         1197
  C:A929H         LINE#         1198
  C:A929H         LINE#         1201
  C:A92CH         LINE#         1205
  C:A92FH         LINE#         1206
  C:A932H         LINE#         1207
  C:A935H         LINE#         1208
  C:A937H         LINE#         1209
  C:A93AH         LINE#         1210
  C:A93AH         LINE#         1211
  C:A93CH         LINE#         1212
  C:A93FH         LINE#         1213
  C:A93FH         LINE#         1217
  C:A942H         LINE#         1218
  C:A945H         LINE#         1219
  C:A947H         LINE#         1220
BL51 BANKED LINKER/LOCATER V6.22.2.0                                                  08/13/2022  23:50:26  PAGE 42


  C:A94AH         LINE#         1221
  C:A94AH         LINE#         1224
  C:A94DH         LINE#         1226
  C:A94DH         LINE#         1228
  C:A94DH         LINE#         1231
  C:A950H         LINE#         1232
  -------         ENDPROC       PIN11_SET_2_21
  -------         PROC          PIN12_SET_2_22
  C:A958H         LINE#         1236
  C:A958H         LINE#         1237
  C:A958H         LINE#         1239
  C:A95DH         LINE#         1242
  C:A964H         LINE#         1245
  C:A979H         LINE#         1246
  C:A979H         LINE#         1247
  C:A979H         LINE#         1249
  C:A979H         LINE#         1252
  C:A97CH         LINE#         1257
  C:A97FH         LINE#         1258
  C:A982H         LINE#         1259
  C:A984H         LINE#         1260
  C:A987H         LINE#         1261
  C:A987H         LINE#         1264
  C:A98AH         LINE#         1267
  C:A98DH         LINE#         1268
  C:A98DH         LINE#         1269
  C:A990H         LINE#         1275
  C:A990H         LINE#         1277
  C:A990H         LINE#         1281
  C:A99AH         LINE#         1282
  C:A99CH         LINE#         1283
  C:A9A3H         LINE#         1284
  C:A9A5H         LINE#         1285
  C:A9A5H         LINE#         1288
  C:A9A8H         LINE#         1292
  C:A9ABH         LINE#         1294
  C:A9AEH         LINE#         1295
  C:A9B1H         LINE#         1296
  C:A9B3H         LINE#         1297
  C:A9B6H         LINE#         1298
  C:A9B6H         LINE#         1300
  C:A9B8H         LINE#         1302
  C:A9BBH         LINE#         1304
  C:A9BBH         LINE#         1309
  C:A9BEH         LINE#         1312
  C:A9C1H         LINE#         1313
  C:A9C1H         LINE#         1314
  C:A9C3H         LINE#         1315
  C:A9C3H         LINE#         1316
  C:A9C3H         LINE#         1317
  C:A9C5H         LINE#         1319
  C:A9C5H         LINE#         1321
  C:A9C8H         LINE#         1324
  C:A9CBH         LINE#         1326
  C:A9CBH         LINE#         1329
  C:A9D5H         LINE#         1330
  C:A9E0H         LINE#         1334
BL51 BANKED LINKER/LOCATER V6.22.2.0                                                  08/13/2022  23:50:26  PAGE 43


  C:A9E3H         LINE#         1335
  C:A9E6H         LINE#         1336
  C:A9E8H         LINE#         1337
  C:A9EBH         LINE#         1338
  C:A9EBH         LINE#         1342
  C:A9EEH         LINE#         1343
  C:A9F1H         LINE#         1344
  C:A9F3H         LINE#         1345
  C:A9F6H         LINE#         1346
  C:A9F6H         LINE#         1349
  C:A9F9H         LINE#         1350
  C:A9FCH         LINE#         1351
  C:A9FEH         LINE#         1352
  C:AA01H         LINE#         1353
  C:AA01H         LINE#         1355
  C:AA03H         LINE#         1357
  C:AA03H         LINE#         1359
  C:AA03H         LINE#         1363
  C:AA0DH         LINE#         1364
  C:AA0FH         LINE#         1365
  C:AA16H         LINE#         1366
  C:AA18H         LINE#         1367
  C:AA18H         LINE#         1370
  C:AA1BH         LINE#         1374
  C:AA1EH         LINE#         1375
  C:AA21H         LINE#         1376
  C:AA24H         LINE#         1377
  C:AA26H         LINE#         1378
  C:AA29H         LINE#         1379
  C:AA29H         LINE#         1380
  C:AA2BH         LINE#         1381
  C:AA2EH         LINE#         1382
  C:AA2EH         LINE#         1386
  C:AA31H         LINE#         1387
  C:AA34H         LINE#         1388
  C:AA36H         LINE#         1389
  C:AA39H         LINE#         1390
  C:AA39H         LINE#         1393
  C:AA3CH         LINE#         1395
  C:AA3CH         LINE#         1397
  C:AA3CH         LINE#         1400
  C:AA3FH         LINE#         1401
  -------         ENDPROC       PIN12_SET_2_22
  -------         PROC          PIN13_SET_2_23
  C:AA47H         LINE#         1405
  C:AA47H         LINE#         1406
  C:AA47H         LINE#         1408
  C:AA4CH         LINE#         1411
  C:AA53H         LINE#         1414
  C:AA68H         LINE#         1415
  C:AA68H         LINE#         1416
  C:AA68H         LINE#         1418
  C:AA68H         LINE#         1421
  C:AA6BH         LINE#         1426
  C:AA6EH         LINE#         1427
  C:AA71H         LINE#         1428
  C:AA73H         LINE#         1429
BL51 BANKED LINKER/LOCATER V6.22.2.0                                                  08/13/2022  23:50:26  PAGE 44


  C:AA76H         LINE#         1430
  C:AA76H         LINE#         1433
  C:AA79H         LINE#         1436
  C:AA7CH         LINE#         1437
  C:AA7CH         LINE#         1438
  C:AA7FH         LINE#         1444
  C:AA7FH         LINE#         1446
  C:AA7FH         LINE#         1450
  C:AA89H         LINE#         1451
  C:AA8BH         LINE#         1452
  C:AA92H         LINE#         1453
  C:AA94H         LINE#         1454
  C:AA94H         LINE#         1457
  C:AA97H         LINE#         1461
  C:AA9AH         LINE#         1463
  C:AA9DH         LINE#         1464
  C:AAA0H         LINE#         1465
  C:AAA2H         LINE#         1466
  C:AAA5H         LINE#         1467
  C:AAA5H         LINE#         1469
  C:AAA7H         LINE#         1471
  C:AAAAH         LINE#         1473
  C:AAAAH         LINE#         1478
  C:AAADH         LINE#         1481
  C:AAB0H         LINE#         1482
  C:AAB0H         LINE#         1483
  C:AAB2H         LINE#         1484
  C:AAB2H         LINE#         1485
  C:AAB2H         LINE#         1486
  C:AAB4H         LINE#         1488
  C:AAB4H         LINE#         1490
  C:AAB7H         LINE#         1493
  C:AABAH         LINE#         1495
  C:AABAH         LINE#         1498
  C:AAC4H         LINE#         1499
  C:AACFH         LINE#         1503
  C:AAD2H         LINE#         1504
  C:AAD5H         LINE#         1505
  C:AAD7H         LINE#         1506
  C:AADAH         LINE#         1507
  C:AADAH         LINE#         1511
  C:AADDH         LINE#         1512
  C:AAE0H         LINE#         1513
  C:AAE2H         LINE#         1514
  C:AAE5H         LINE#         1515
  C:AAE5H         LINE#         1518
  C:AAE8H         LINE#         1519
  C:AAEBH         LINE#         1520
  C:AAEDH         LINE#         1521
  C:AAF0H         LINE#         1522
  C:AAF0H         LINE#         1524
  C:AAF2H         LINE#         1526
  C:AAF2H         LINE#         1528
  C:AAF2H         LINE#         1532
  C:AAFCH         LINE#         1533
  C:AAFEH         LINE#         1534
  C:AB05H         LINE#         1535
BL51 BANKED LINKER/LOCATER V6.22.2.0                                                  08/13/2022  23:50:26  PAGE 45


  C:AB07H         LINE#         1536
  C:AB07H         LINE#         1539
  C:AB0AH         LINE#         1543
  C:AB0DH         LINE#         1544
  C:AB10H         LINE#         1545
  C:AB13H         LINE#         1546
  C:AB15H         LINE#         1547
  C:AB18H         LINE#         1548
  C:AB18H         LINE#         1549
  C:AB1AH         LINE#         1550
  C:AB1DH         LINE#         1551
  C:AB1DH         LINE#         1555
  C:AB20H         LINE#         1556
  C:AB23H         LINE#         1557
  C:AB25H         LINE#         1558
  C:AB28H         LINE#         1559
  C:AB28H         LINE#         1562
  C:AB2BH         LINE#         1564
  C:AB2BH         LINE#         1566
  C:AB2BH         LINE#         1569
  C:AB2EH         LINE#         1570
  -------         ENDPROC       PIN13_SET_2_23
  -------         PROC          PIN14_SET_2_24
  C:AB36H         LINE#         1574
  C:AB36H         LINE#         1575
  C:AB36H         LINE#         1577
  C:AB3BH         LINE#         1580
  C:AB42H         LINE#         1583
  C:AB57H         LINE#         1584
  C:AB57H         LINE#         1585
  C:AB57H         LINE#         1587
  C:AB57H         LINE#         1590
  C:AB5AH         LINE#         1595
  C:AB5DH         LINE#         1596
  C:AB60H         LINE#         1597
  C:AB62H         LINE#         1598
  C:AB65H         LINE#         1599
  C:AB65H         LINE#         1602
  C:AB68H         LINE#         1605
  C:AB6BH         LINE#         1606
  C:AB6BH         LINE#         1607
  C:AB6EH         LINE#         1613
  C:AB6EH         LINE#         1615
  C:AB6EH         LINE#         1619
  C:AB78H         LINE#         1620
  C:AB7AH         LINE#         1621
  C:AB81H         LINE#         1622
  C:AB83H         LINE#         1623
  C:AB83H         LINE#         1626
  C:AB86H         LINE#         1630
  C:AB89H         LINE#         1632
  C:AB8CH         LINE#         1633
  C:AB8FH         LINE#         1634
  C:AB91H         LINE#         1635
  C:AB94H         LINE#         1636
  C:AB94H         LINE#         1638
  C:AB96H         LINE#         1640
BL51 BANKED LINKER/LOCATER V6.22.2.0                                                  08/13/2022  23:50:26  PAGE 46


  C:AB99H         LINE#         1642
  C:AB99H         LINE#         1647
  C:AB9CH         LINE#         1650
  C:AB9FH         LINE#         1651
  C:AB9FH         LINE#         1652
  C:ABA1H         LINE#         1653
  C:ABA1H         LINE#         1654
  C:ABA1H         LINE#         1655
  C:ABA3H         LINE#         1657
  C:ABA3H         LINE#         1659
  C:ABA6H         LINE#         1662
  C:ABA9H         LINE#         1664
  C:ABA9H         LINE#         1667
  C:ABB3H         LINE#         1668
  C:ABBEH         LINE#         1672
  C:ABC1H         LINE#         1673
  C:ABC4H         LINE#         1674
  C:ABC6H         LINE#         1675
  C:ABC9H         LINE#         1676
  C:ABC9H         LINE#         1680
  C:ABCCH         LINE#         1681
  C:ABCFH         LINE#         1682
  C:ABD1H         LINE#         1683
  C:ABD4H         LINE#         1684
  C:ABD4H         LINE#         1687
  C:ABD7H         LINE#         1688
  C:ABDAH         LINE#         1689
  C:ABDCH         LINE#         1690
  C:ABDFH         LINE#         1691
  C:ABDFH         LINE#         1693
  C:ABE1H         LINE#         1695
  C:ABE1H         LINE#         1697
  C:ABE1H         LINE#         1701
  C:ABEBH         LINE#         1702
  C:ABEDH         LINE#         1703
  C:ABF4H         LINE#         1704
  C:ABF6H         LINE#         1705
  C:ABF6H         LINE#         1708
  C:ABF9H         LINE#         1712
  C:ABFCH         LINE#         1713
  C:ABFFH         LINE#         1714
  C:AC02H         LINE#         1715
  C:AC04H         LINE#         1716
  C:AC07H         LINE#         1717
  C:AC07H         LINE#         1718
  C:AC09H         LINE#         1719
  C:AC0CH         LINE#         1720
  C:AC0CH         LINE#         1724
  C:AC0FH         LINE#         1725
  C:AC12H         LINE#         1726
  C:AC14H         LINE#         1727
  C:AC17H         LINE#         1728
  C:AC17H         LINE#         1731
  C:AC1AH         LINE#         1733
  C:AC1AH         LINE#         1735
  C:AC1AH         LINE#         1738
  C:AC1DH         LINE#         1739
BL51 BANKED LINKER/LOCATER V6.22.2.0                                                  08/13/2022  23:50:26  PAGE 47


  -------         ENDPROC       PIN14_SET_2_24
  -------         PROC          PIN15_SET_2_25
  C:AC25H         LINE#         1743
  C:AC25H         LINE#         1744
  C:AC25H         LINE#         1746
  C:AC2AH         LINE#         1749
  C:AC31H         LINE#         1752
  C:AC46H         LINE#         1753
  C:AC46H         LINE#         1754
  C:AC46H         LINE#         1756
  C:AC46H         LINE#         1759
  C:AC49H         LINE#         1764
  C:AC4CH         LINE#         1765
  C:AC4FH         LINE#         1766
  C:AC51H         LINE#         1767
  C:AC54H         LINE#         1768
  C:AC54H         LINE#         1771
  C:AC57H         LINE#         1774
  C:AC5AH         LINE#         1775
  C:AC5AH         LINE#         1776
  C:AC5DH         LINE#         1782
  C:AC5DH         LINE#         1784
  C:AC5DH         LINE#         1788
  C:AC67H         LINE#         1789
  C:AC69H         LINE#         1790
  C:AC70H         LINE#         1791
  C:AC72H         LINE#         1792
  C:AC72H         LINE#         1795
  C:AC75H         LINE#         1799
  C:AC78H         LINE#         1801
  C:AC7BH         LINE#         1802
  C:AC7EH         LINE#         1803
  C:AC80H         LINE#         1804
  C:AC83H         LINE#         1805
  C:AC83H         LINE#         1807
  C:AC85H         LINE#         1809
  C:AC88H         LINE#         1811
  C:AC88H         LINE#         1816
  C:AC8BH         LINE#         1819
  C:AC8EH         LINE#         1820
  C:AC8EH         LINE#         1821
  C:AC90H         LINE#         1822
  C:AC90H         LINE#         1823
  C:AC90H         LINE#         1824
  C:AC92H         LINE#         1826
  C:AC92H         LINE#         1828
  C:AC95H         LINE#         1831
  C:AC98H         LINE#         1833
  C:AC98H         LINE#         1836
  C:ACA2H         LINE#         1837
  C:ACADH         LINE#         1841
  C:ACB0H         LINE#         1842
  C:ACB3H         LINE#         1843
  C:ACB5H         LINE#         1844
  C:ACB8H         LINE#         1845
  C:ACB8H         LINE#         1849
  C:ACBBH         LINE#         1850
BL51 BANKED LINKER/LOCATER V6.22.2.0                                                  08/13/2022  23:50:26  PAGE 48


  C:ACBEH         LINE#         1851
  C:ACC0H         LINE#         1852
  C:ACC3H         LINE#         1853
  C:ACC3H         LINE#         1856
  C:ACC6H         LINE#         1857
  C:ACC9H         LINE#         1858
  C:ACCBH         LINE#         1859
  C:ACCEH         LINE#         1860
  C:ACCEH         LINE#         1862
  C:ACD0H         LINE#         1864
  C:ACD0H         LINE#         1866
  C:ACD0H         LINE#         1870
  C:ACDAH         LINE#         1871
  C:ACDCH         LINE#         1872
  C:ACE3H         LINE#         1873
  C:ACE5H         LINE#         1874
  C:ACE5H         LINE#         1877
  C:ACE8H         LINE#         1881
  C:ACEBH         LINE#         1882
  C:ACEEH         LINE#         1883
  C:ACF1H         LINE#         1884
  C:ACF3H         LINE#         1885
  C:ACF6H         LINE#         1886
  C:ACF6H         LINE#         1887
  C:ACF8H         LINE#         1888
  C:ACFBH         LINE#         1889
  C:ACFBH         LINE#         1893
  C:ACFEH         LINE#         1894
  C:AD01H         LINE#         1895
  C:AD03H         LINE#         1896
  C:AD06H         LINE#         1897
  C:AD06H         LINE#         1900
  C:AD09H         LINE#         1902
  C:AD09H         LINE#         1904
  C:AD09H         LINE#         1907
  C:AD0CH         LINE#         1908
  -------         ENDPROC       PIN15_SET_2_25
  -------         PROC          PIN16_SET_2_26
  C:AD14H         LINE#         1912
  C:AD14H         LINE#         1913
  C:AD14H         LINE#         1915
  C:AD19H         LINE#         1918
  C:AD20H         LINE#         1921
  C:AD35H         LINE#         1922
  C:AD35H         LINE#         1923
  C:AD35H         LINE#         1925
  C:AD35H         LINE#         1928
  C:AD38H         LINE#         1933
  C:AD3BH         LINE#         1934
  C:AD3EH         LINE#         1935
  C:AD40H         LINE#         1936
  C:AD43H         LINE#         1937
  C:AD43H         LINE#         1940
  C:AD46H         LINE#         1943
  C:AD49H         LINE#         1944
  C:AD49H         LINE#         1945
  C:AD4CH         LINE#         1951
BL51 BANKED LINKER/LOCATER V6.22.2.0                                                  08/13/2022  23:50:26  PAGE 49


  C:AD4CH         LINE#         1953
  C:AD4CH         LINE#         1957
  C:AD56H         LINE#         1958
  C:AD58H         LINE#         1959
  C:AD5FH         LINE#         1960
  C:AD61H         LINE#         1961
  C:AD61H         LINE#         1964
  C:AD64H         LINE#         1968
  C:AD67H         LINE#         1970
  C:AD6AH         LINE#         1971
  C:AD6DH         LINE#         1972
  C:AD6FH         LINE#         1973
  C:AD72H         LINE#         1974
  C:AD72H         LINE#         1976
  C:AD74H         LINE#         1978
  C:AD77H         LINE#         1980
  C:AD77H         LINE#         1985
  C:AD7AH         LINE#         1988
  C:AD7DH         LINE#         1989
  C:AD7DH         LINE#         1990
  C:AD7FH         LINE#         1991
  C:AD7FH         LINE#         1992
  C:AD7FH         LINE#         1993
  C:AD81H         LINE#         1995
  C:AD81H         LINE#         1997
  C:AD84H         LINE#         2000
  C:AD87H         LINE#         2002
  C:AD87H         LINE#         2005
  C:AD91H         LINE#         2006
  C:AD9CH         LINE#         2010
  C:AD9FH         LINE#         2011
  C:ADA2H         LINE#         2012
  C:ADA4H         LINE#         2013
  C:ADA7H         LINE#         2014
  C:ADA7H         LINE#         2018
  C:ADAAH         LINE#         2019
  C:ADADH         LINE#         2020
  C:ADAFH         LINE#         2021
  C:ADB2H         LINE#         2022
  C:ADB2H         LINE#         2025
  C:ADB5H         LINE#         2026
  C:ADB8H         LINE#         2027
  C:ADBAH         LINE#         2028
  C:ADBDH         LINE#         2029
  C:ADBDH         LINE#         2031
  C:ADBFH         LINE#         2033
  C:ADBFH         LINE#         2035
  C:ADBFH         LINE#         2039
  C:ADC9H         LINE#         2040
  C:ADCBH         LINE#         2041
  C:ADD2H         LINE#         2042
  C:ADD4H         LINE#         2043
  C:ADD4H         LINE#         2046
  C:ADD7H         LINE#         2050
  C:ADDAH         LINE#         2051
  C:ADDDH         LINE#         2052
  C:ADE0H         LINE#         2053
BL51 BANKED LINKER/LOCATER V6.22.2.0                                                  08/13/2022  23:50:26  PAGE 50


  C:ADE2H         LINE#         2054
  C:ADE5H         LINE#         2055
  C:ADE5H         LINE#         2056
  C:ADE7H         LINE#         2057
  C:ADEAH         LINE#         2058
  C:ADEAH         LINE#         2062
  C:ADEDH         LINE#         2063
  C:ADF0H         LINE#         2064
  C:ADF2H         LINE#         2065
  C:ADF5H         LINE#         2066
  C:ADF5H         LINE#         2069
  C:ADF8H         LINE#         2071
  C:ADF8H         LINE#         2073
  C:ADF8H         LINE#         2076
  C:ADFBH         LINE#         2077
  -------         ENDPROC       PIN16_SET_2_26
  -------         PROC          PIN17_SET_2_27
  C:AE03H         LINE#         2081
  C:AE03H         LINE#         2082
  C:AE03H         LINE#         2084
  C:AE08H         LINE#         2087
  C:AE0FH         LINE#         2090
  C:AE24H         LINE#         2091
  C:AE24H         LINE#         2092
  C:AE24H         LINE#         2094
  C:AE24H         LINE#         2097
  C:AE27H         LINE#         2102
  C:AE2AH         LINE#         2103
  C:AE2DH         LINE#         2104
  C:AE2FH         LINE#         2105
  C:AE32H         LINE#         2106
  C:AE32H         LINE#         2109
  C:AE35H         LINE#         2112
  C:AE38H         LINE#         2113
  C:AE38H         LINE#         2114
  C:AE3BH         LINE#         2120
  C:AE3BH         LINE#         2122
  C:AE3BH         LINE#         2126
  C:AE45H         LINE#         2127
  C:AE47H         LINE#         2128
  C:AE4EH         LINE#         2129
  C:AE50H         LINE#         2130
  C:AE50H         LINE#         2133
  C:AE53H         LINE#         2137
  C:AE56H         LINE#         2139
  C:AE59H         LINE#         2140
  C:AE5CH         LINE#         2141
  C:AE5EH         LINE#         2142
  C:AE61H         LINE#         2143
  C:AE61H         LINE#         2145
  C:AE63H         LINE#         2147
  C:AE66H         LINE#         2149
  C:AE66H         LINE#         2154
  C:AE69H         LINE#         2157
  C:AE6CH         LINE#         2158
  C:AE6CH         LINE#         2159
  C:AE6EH         LINE#         2160
BL51 BANKED LINKER/LOCATER V6.22.2.0                                                  08/13/2022  23:50:26  PAGE 51


  C:AE6EH         LINE#         2161
  C:AE6EH         LINE#         2162
  C:AE70H         LINE#         2164
  C:AE70H         LINE#         2166
  C:AE73H         LINE#         2169
  C:AE76H         LINE#         2171
  C:AE76H         LINE#         2174
  C:AE80H         LINE#         2175
  C:AE8BH         LINE#         2179
  C:AE8EH         LINE#         2180
  C:AE91H         LINE#         2181
  C:AE93H         LINE#         2182
  C:AE96H         LINE#         2183
  C:AE96H         LINE#         2187
  C:AE99H         LINE#         2188
  C:AE9CH         LINE#         2189
  C:AE9EH         LINE#         2190
  C:AEA1H         LINE#         2191
  C:AEA1H         LINE#         2194
  C:AEA4H         LINE#         2195
  C:AEA7H         LINE#         2196
  C:AEA9H         LINE#         2197
  C:AEACH         LINE#         2198
  C:AEACH         LINE#         2200
  C:AEAEH         LINE#         2202
  C:AEAEH         LINE#         2204
  C:AEAEH         LINE#         2208
  C:AEB8H         LINE#         2209
  C:AEBAH         LINE#         2210
  C:AEC1H         LINE#         2211
  C:AEC3H         LINE#         2212
  C:AEC3H         LINE#         2215
  C:AEC6H         LINE#         2219
  C:AEC9H         LINE#         2220
  C:AECCH         LINE#         2221
  C:AECFH         LINE#         2222
  C:AED1H         LINE#         2223
  C:AED4H         LINE#         2224
  C:AED4H         LINE#         2225
  C:AED6H         LINE#         2226
  C:AED9H         LINE#         2227
  C:AED9H         LINE#         2231
  C:AEDCH         LINE#         2232
  C:AEDFH         LINE#         2233
  C:AEE1H         LINE#         2234
  C:AEE4H         LINE#         2235
  C:AEE4H         LINE#         2238
  C:AEE7H         LINE#         2240
  C:AEE7H         LINE#         2242
  C:AEE7H         LINE#         2245
  C:AEEAH         LINE#         2246
  -------         ENDPROC       PIN17_SET_2_27
  -------         PROC          PIN20_SET_2_28
  C:A598H         LINE#         2250
  C:A598H         LINE#         2251
  C:A598H         LINE#         2253
  C:A59DH         LINE#         2256
BL51 BANKED LINKER/LOCATER V6.22.2.0                                                  08/13/2022  23:50:26  PAGE 52


  C:A5A4H         LINE#         2259
  C:A5B9H         LINE#         2260
  C:A5B9H         LINE#         2261
  C:A5B9H         LINE#         2263
  C:A5B9H         LINE#         2266
  C:A5BCH         LINE#         2271
  C:A5BFH         LINE#         2272
  C:A5C2H         LINE#         2273
  C:A5C4H         LINE#         2274
  C:A5C7H         LINE#         2275
  C:A5C7H         LINE#         2278
  C:A5CAH         LINE#         2281
  C:A5CDH         LINE#         2282
  C:A5CDH         LINE#         2283
  C:A5D0H         LINE#         2289
  C:A5D0H         LINE#         2291
  C:A5D0H         LINE#         2295
  C:A5DAH         LINE#         2296
  C:A5DCH         LINE#         2297
  C:A5E3H         LINE#         2298
  C:A5E5H         LINE#         2299
  C:A5E5H         LINE#         2302
  C:A5E8H         LINE#         2306
  C:A5EBH         LINE#         2308
  C:A5EEH         LINE#         2309
  C:A5F1H         LINE#         2310
  C:A5F3H         LINE#         2311
  C:A5F6H         LINE#         2312
  C:A5F6H         LINE#         2314
  C:A5F8H         LINE#         2316
  C:A5FBH         LINE#         2318
  C:A5FBH         LINE#         2323
  C:A5FEH         LINE#         2326
  C:A601H         LINE#         2327
  C:A601H         LINE#         2328
  C:A603H         LINE#         2329
  C:A603H         LINE#         2330
  C:A603H         LINE#         2331
  C:A605H         LINE#         2333
  C:A605H         LINE#         2335
  C:A608H         LINE#         2338
  C:A60BH         LINE#         2340
  C:A60BH         LINE#         2343
  C:A615H         LINE#         2344
  C:A620H         LINE#         2348
  C:A623H         LINE#         2349
  C:A626H         LINE#         2350
  C:A628H         LINE#         2351
  C:A62BH         LINE#         2352
  C:A62BH         LINE#         2356
  C:A62EH         LINE#         2357
  C:A631H         LINE#         2358
  C:A633H         LINE#         2359
  C:A636H         LINE#         2360
  C:A636H         LINE#         2363
  C:A639H         LINE#         2364
  C:A63CH         LINE#         2365
BL51 BANKED LINKER/LOCATER V6.22.2.0                                                  08/13/2022  23:50:26  PAGE 53


  C:A63EH         LINE#         2366
  C:A641H         LINE#         2367
  C:A641H         LINE#         2369
  C:A643H         LINE#         2371
  C:A643H         LINE#         2373
  C:A643H         LINE#         2377
  C:A64DH         LINE#         2378
  C:A64FH         LINE#         2379
  C:A656H         LINE#         2380
  C:A658H         LINE#         2381
  C:A658H         LINE#         2384
  C:A65BH         LINE#         2388
  C:A65EH         LINE#         2389
  C:A661H         LINE#         2390
  C:A664H         LINE#         2391
  C:A666H         LINE#         2392
  C:A669H         LINE#         2393
  C:A669H         LINE#         2394
  C:A66BH         LINE#         2395
  C:A66EH         LINE#         2396
  C:A66EH         LINE#         2400
  C:A671H         LINE#         2401
  C:A674H         LINE#         2402
  C:A676H         LINE#         2403
  C:A679H         LINE#         2404
  C:A679H         LINE#         2407
  C:A67CH         LINE#         2409
  C:A67CH         LINE#         2411
  C:A67CH         LINE#         2414
  C:A681H         LINE#         2415
  -------         ENDPROC       PIN20_SET_2_28
  -------         PROC          PIN21_SET_2_29
  C:AEF2H         LINE#         2419
  C:AEF2H         LINE#         2420
  C:AEF2H         LINE#         2422
  C:AEF7H         LINE#         2425
  C:AEFEH         LINE#         2428
  C:AF13H         LINE#         2429
  C:AF13H         LINE#         2430
  C:AF13H         LINE#         2432
  C:AF13H         LINE#         2435
  C:AF16H         LINE#         2440
  C:AF19H         LINE#         2441
  C:AF1CH         LINE#         2442
  C:AF1EH         LINE#         2443
  C:AF21H         LINE#         2444
  C:AF21H         LINE#         2447
  C:AF24H         LINE#         2450
  C:AF27H         LINE#         2451
  C:AF27H         LINE#         2452
  C:AF2AH         LINE#         2458
  C:AF2AH         LINE#         2460
  C:AF2AH         LINE#         2464
  C:AF34H         LINE#         2465
  C:AF36H         LINE#         2466
  C:AF3DH         LINE#         2467
  C:AF3FH         LINE#         2468
BL51 BANKED LINKER/LOCATER V6.22.2.0                                                  08/13/2022  23:50:26  PAGE 54


  C:AF3FH         LINE#         2471
  C:AF42H         LINE#         2475
  C:AF45H         LINE#         2477
  C:AF48H         LINE#         2478
  C:AF4BH         LINE#         2479
  C:AF4DH         LINE#         2480
  C:AF50H         LINE#         2481
  C:AF50H         LINE#         2483
  C:AF52H         LINE#         2485
  C:AF55H         LINE#         2487
  C:AF55H         LINE#         2492
  C:AF58H         LINE#         2495
  C:AF5BH         LINE#         2496
  C:AF5BH         LINE#         2497
  C:AF5DH         LINE#         2498
  C:AF5DH         LINE#         2499
  C:AF5DH         LINE#         2500
  C:AF5FH         LINE#         2502
  C:AF5FH         LINE#         2504
  C:AF62H         LINE#         2507
  C:AF65H         LINE#         2509
  C:AF65H         LINE#         2512
  C:AF6FH         LINE#         2513
  C:AF7AH         LINE#         2517
  C:AF7DH         LINE#         2518
  C:AF80H         LINE#         2519
  C:AF82H         LINE#         2520
  C:AF85H         LINE#         2521
  C:AF85H         LINE#         2525
  C:AF88H         LINE#         2526
  C:AF8BH         LINE#         2527
  C:AF8DH         LINE#         2528
  C:AF90H         LINE#         2529
  C:AF90H         LINE#         2532
  C:AF93H         LINE#         2533
  C:AF96H         LINE#         2534
  C:AF98H         LINE#         2535
  C:AF9BH         LINE#         2536
  C:AF9BH         LINE#         2538
  C:AF9DH         LINE#         2540
  C:AF9DH         LINE#         2542
  C:AF9DH         LINE#         2546
  C:AFA7H         LINE#         2547
  C:AFA9H         LINE#         2548
  C:AFB0H         LINE#         2549
  C:AFB2H         LINE#         2550
  C:AFB2H         LINE#         2553
  C:AFB5H         LINE#         2557
  C:AFB8H         LINE#         2558
  C:AFBBH         LINE#         2559
  C:AFBEH         LINE#         2560
  C:AFC0H         LINE#         2561
  C:AFC3H         LINE#         2562
  C:AFC3H         LINE#         2563
  C:AFC5H         LINE#         2564
  C:AFC8H         LINE#         2565
  C:AFC8H         LINE#         2569
BL51 BANKED LINKER/LOCATER V6.22.2.0                                                  08/13/2022  23:50:26  PAGE 55


  C:AFCBH         LINE#         2570
  C:AFCEH         LINE#         2571
  C:AFD0H         LINE#         2572
  C:AFD3H         LINE#         2573
  C:AFD3H         LINE#         2576
  C:AFD6H         LINE#         2578
  C:AFD6H         LINE#         2580
  C:AFD6H         LINE#         2583
  C:AFD9H         LINE#         2584
  -------         ENDPROC       PIN21_SET_2_29
  -------         PROC          PIN22_SET_2_30
  C:AFE1H         LINE#         2588
  C:AFE1H         LINE#         2589
  C:AFE1H         LINE#         2591
  C:AFE6H         LINE#         2594
  C:AFEDH         LINE#         2597
  C:B002H         LINE#         2598
  C:B002H         LINE#         2599
  C:B002H         LINE#         2601
  C:B002H         LINE#         2604
  C:B005H         LINE#         2609
  C:B008H         LINE#         2610
  C:B00BH         LINE#         2611
  C:B00DH         LINE#         2612
  C:B010H         LINE#         2613
  C:B010H         LINE#         2616
  C:B013H         LINE#         2619
  C:B016H         LINE#         2620
  C:B016H         LINE#         2621
  C:B019H         LINE#         2627
  C:B019H         LINE#         2629
  C:B019H         LINE#         2633
  C:B023H         LINE#         2634
  C:B025H         LINE#         2635
  C:B02CH         LINE#         2636
  C:B02EH         LINE#         2637
  C:B02EH         LINE#         2640
  C:B031H         LINE#         2644
  C:B034H         LINE#         2646
  C:B037H         LINE#         2647
  C:B03AH         LINE#         2648
  C:B03CH         LINE#         2649
  C:B03FH         LINE#         2650
  C:B03FH         LINE#         2652
  C:B041H         LINE#         2654
  C:B044H         LINE#         2656
  C:B044H         LINE#         2661
  C:B047H         LINE#         2664
  C:B04AH         LINE#         2665
  C:B04AH         LINE#         2666
  C:B04CH         LINE#         2667
  C:B04CH         LINE#         2668
  C:B04CH         LINE#         2669
  C:B04EH         LINE#         2671
  C:B04EH         LINE#         2673
  C:B051H         LINE#         2676
  C:B054H         LINE#         2678
BL51 BANKED LINKER/LOCATER V6.22.2.0                                                  08/13/2022  23:50:26  PAGE 56


  C:B054H         LINE#         2681
  C:B05EH         LINE#         2682
  C:B069H         LINE#         2686
  C:B06CH         LINE#         2687
  C:B06FH         LINE#         2688
  C:B071H         LINE#         2689
  C:B074H         LINE#         2690
  C:B074H         LINE#         2694
  C:B077H         LINE#         2695
  C:B07AH         LINE#         2696
  C:B07CH         LINE#         2697
  C:B07FH         LINE#         2698
  C:B07FH         LINE#         2701
  C:B082H         LINE#         2702
  C:B085H         LINE#         2703
  C:B087H         LINE#         2704
  C:B08AH         LINE#         2705
  C:B08AH         LINE#         2707
  C:B08CH         LINE#         2709
  C:B08CH         LINE#         2711
  C:B08CH         LINE#         2715
  C:B096H         LINE#         2716
  C:B098H         LINE#         2717
  C:B09FH         LINE#         2718
  C:B0A1H         LINE#         2719
  C:B0A1H         LINE#         2722
  C:B0A4H         LINE#         2726
  C:B0A7H         LINE#         2727
  C:B0AAH         LINE#         2728
  C:B0ADH         LINE#         2729
  C:B0AFH         LINE#         2730
  C:B0B2H         LINE#         2731
  C:B0B2H         LINE#         2732
  C:B0B4H         LINE#         2733
  C:B0B7H         LINE#         2734
  C:B0B7H         LINE#         2738
  C:B0BAH         LINE#         2739
  C:B0BDH         LINE#         2740
  C:B0BFH         LINE#         2741
  C:B0C2H         LINE#         2742
  C:B0C2H         LINE#         2745
  C:B0C5H         LINE#         2747
  C:B0C5H         LINE#         2749
  C:B0C5H         LINE#         2752
  C:B0C8H         LINE#         2753
  -------         ENDPROC       PIN22_SET_2_30
  -------         PROC          PIN23_SET_2_31
  C:B0D0H         LINE#         2757
  C:B0D0H         LINE#         2758
  C:B0D0H         LINE#         2760
  C:B0D5H         LINE#         2763
  C:B0DCH         LINE#         2766
  C:B0F1H         LINE#         2767
  C:B0F1H         LINE#         2768
  C:B0F1H         LINE#         2770
  C:B0F1H         LINE#         2773
  C:B0F4H         LINE#         2778
BL51 BANKED LINKER/LOCATER V6.22.2.0                                                  08/13/2022  23:50:26  PAGE 57


  C:B0F7H         LINE#         2779
  C:B0FAH         LINE#         2780
  C:B0FCH         LINE#         2781
  C:B0FFH         LINE#         2782
  C:B0FFH         LINE#         2785
  C:B102H         LINE#         2788
  C:B105H         LINE#         2789
  C:B105H         LINE#         2790
  C:B108H         LINE#         2796
  C:B108H         LINE#         2798
  C:B108H         LINE#         2802
  C:B112H         LINE#         2803
  C:B114H         LINE#         2804
  C:B11BH         LINE#         2805
  C:B11DH         LINE#         2806
  C:B11DH         LINE#         2809
  C:B120H         LINE#         2813
  C:B123H         LINE#         2815
  C:B126H         LINE#         2816
  C:B129H         LINE#         2817
  C:B12BH         LINE#         2818
  C:B12EH         LINE#         2819
  C:B12EH         LINE#         2821
  C:B130H         LINE#         2823
  C:B133H         LINE#         2825
  C:B133H         LINE#         2830
  C:B136H         LINE#         2833
  C:B139H         LINE#         2834
  C:B139H         LINE#         2835
  C:B13BH         LINE#         2836
  C:B13BH         LINE#         2837
  C:B13BH         LINE#         2838
  C:B13DH         LINE#         2840
  C:B13DH         LINE#         2842
  C:B140H         LINE#         2845
  C:B143H         LINE#         2847
  C:B143H         LINE#         2850
  C:B14DH         LINE#         2851
  C:B158H         LINE#         2855
  C:B15BH         LINE#         2856
  C:B15EH         LINE#         2857
  C:B160H         LINE#         2858
  C:B163H         LINE#         2859
  C:B163H         LINE#         2863
  C:B166H         LINE#         2864
  C:B169H         LINE#         2865
  C:B16BH         LINE#         2866
  C:B16EH         LINE#         2867
  C:B16EH         LINE#         2870
  C:B171H         LINE#         2871
  C:B174H         LINE#         2872
  C:B176H         LINE#         2873
  C:B179H         LINE#         2874
  C:B179H         LINE#         2876
  C:B17BH         LINE#         2878
  C:B17BH         LINE#         2880
  C:B17BH         LINE#         2884
BL51 BANKED LINKER/LOCATER V6.22.2.0                                                  08/13/2022  23:50:26  PAGE 58


  C:B185H         LINE#         2885
  C:B187H         LINE#         2886
  C:B18EH         LINE#         2887
  C:B190H         LINE#         2888
  C:B190H         LINE#         2891
  C:B193H         LINE#         2895
  C:B196H         LINE#         2896
  C:B199H         LINE#         2897
  C:B19CH         LINE#         2898
  C:B19EH         LINE#         2899
  C:B1A1H         LINE#         2900
  C:B1A1H         LINE#         2901
  C:B1A3H         LINE#         2902
  C:B1A6H         LINE#         2903
  C:B1A6H         LINE#         2907
  C:B1A9H         LINE#         2908
  C:B1ACH         LINE#         2909
  C:B1AEH         LINE#         2910
  C:B1B1H         LINE#         2911
  C:B1B1H         LINE#         2914
  C:B1B4H         LINE#         2916
  C:B1B4H         LINE#         2918
  C:B1B4H         LINE#         2921
  C:B1B7H         LINE#         2922
  -------         ENDPROC       PIN23_SET_2_31
  -------         PROC          PIN24_SET_2_32
  C:B1BFH         LINE#         2926
  C:B1BFH         LINE#         2927
  C:B1BFH         LINE#         2929
  C:B1C4H         LINE#         2932
  C:B1CBH         LINE#         2935
  C:B1E0H         LINE#         2936
  C:B1E0H         LINE#         2937
  C:B1E0H         LINE#         2939
  C:B1E0H         LINE#         2942
  C:B1E3H         LINE#         2947
  C:B1E6H         LINE#         2948
  C:B1E9H         LINE#         2949
  C:B1EBH         LINE#         2950
  C:B1EEH         LINE#         2951
  C:B1EEH         LINE#         2954
  C:B1F1H         LINE#         2957
  C:B1F4H         LINE#         2958
  C:B1F4H         LINE#         2959
  C:B1F7H         LINE#         2965
  C:B1F7H         LINE#         2967
  C:B1F7H         LINE#         2971
  C:B201H         LINE#         2972
  C:B203H         LINE#         2973
  C:B20AH         LINE#         2974
  C:B20CH         LINE#         2975
  C:B20CH         LINE#         2978
  C:B20FH         LINE#         2982
  C:B212H         LINE#         2984
  C:B215H         LINE#         2985
  C:B218H         LINE#         2986
  C:B21AH         LINE#         2987
BL51 BANKED LINKER/LOCATER V6.22.2.0                                                  08/13/2022  23:50:26  PAGE 59


  C:B21DH         LINE#         2988
  C:B21DH         LINE#         2990
  C:B21FH         LINE#         2992
  C:B222H         LINE#         2994
  C:B222H         LINE#         2999
  C:B225H         LINE#         3002
  C:B228H         LINE#         3003
  C:B228H         LINE#         3004
  C:B22AH         LINE#         3005
  C:B22AH         LINE#         3006
  C:B22AH         LINE#         3007
  C:B22CH         LINE#         3009
  C:B22CH         LINE#         3011
  C:B22FH         LINE#         3014
  C:B232H         LINE#         3016
  C:B232H         LINE#         3019
  C:B23CH         LINE#         3020
  C:B247H         LINE#         3024
  C:B24AH         LINE#         3025
  C:B24DH         LINE#         3026
  C:B24FH         LINE#         3027
  C:B252H         LINE#         3028
  C:B252H         LINE#         3032
  C:B255H         LINE#         3033
  C:B258H         LINE#         3034
  C:B25AH         LINE#         3035
  C:B25DH         LINE#         3036
  C:B25DH         LINE#         3039
  C:B260H         LINE#         3040
  C:B263H         LINE#         3041
  C:B265H         LINE#         3042
  C:B268H         LINE#         3043
  C:B268H         LINE#         3045
  C:B26AH         LINE#         3047
  C:B26AH         LINE#         3049
  C:B26AH         LINE#         3053
  C:B274H         LINE#         3054
  C:B276H         LINE#         3055
  C:B27DH         LINE#         3056
  C:B27FH         LINE#         3057
  C:B27FH         LINE#         3060
  C:B282H         LINE#         3064
  C:B285H         LINE#         3065
  C:B288H         LINE#         3066
  C:B28BH         LINE#         3067
  C:B28DH         LINE#         3068
  C:B290H         LINE#         3069
  C:B290H         LINE#         3070
  C:B292H         LINE#         3071
  C:B295H         LINE#         3072
  C:B295H         LINE#         3076
  C:B298H         LINE#         3077
  C:B29BH         LINE#         3078
  C:B29DH         LINE#         3079
  C:B2A0H         LINE#         3080
  C:B2A0H         LINE#         3083
  C:B2A3H         LINE#         3085
BL51 BANKED LINKER/LOCATER V6.22.2.0                                                  08/13/2022  23:50:26  PAGE 60


  C:B2A3H         LINE#         3087
  C:B2A3H         LINE#         3090
  C:B2A6H         LINE#         3091
  -------         ENDPROC       PIN24_SET_2_32
  -------         PROC          PIN35_SET_2_33
  C:A689H         LINE#         3095
  C:A689H         LINE#         3096
  C:A689H         LINE#         3098
  C:A68EH         LINE#         3101
  C:A695H         LINE#         3104
  C:A6AAH         LINE#         3105
  C:A6AAH         LINE#         3106
  C:A6AAH         LINE#         3108
  C:A6AAH         LINE#         3111
  C:A6ADH         LINE#         3116
  C:A6B0H         LINE#         3117
  C:A6B3H         LINE#         3118
  C:A6B5H         LINE#         3119
  C:A6B8H         LINE#         3120
  C:A6B8H         LINE#         3123
  C:A6BBH         LINE#         3126
  C:A6BEH         LINE#         3127
  C:A6BEH         LINE#         3128
  C:A6C1H         LINE#         3134
  C:A6C1H         LINE#         3136
  C:A6C1H         LINE#         3140
  C:A6CBH         LINE#         3141
  C:A6CDH         LINE#         3142
  C:A6D4H         LINE#         3143
  C:A6D6H         LINE#         3144
  C:A6D6H         LINE#         3147
  C:A6D9H         LINE#         3151
  C:A6DCH         LINE#         3153
  C:A6DFH         LINE#         3154
  C:A6E2H         LINE#         3155
  C:A6E4H         LINE#         3156
  C:A6E7H         LINE#         3157
  C:A6E7H         LINE#         3159
  C:A6E9H         LINE#         3161
  C:A6ECH         LINE#         3163
  C:A6ECH         LINE#         3168
  C:A6EFH         LINE#         3171
  C:A6F2H         LINE#         3172
  C:A6F2H         LINE#         3173
  C:A6F4H         LINE#         3174
  C:A6F4H         LINE#         3175
  C:A6F4H         LINE#         3176
  C:A6F6H         LINE#         3178
  C:A6F6H         LINE#         3180
  C:A6F9H         LINE#         3183
  C:A6FCH         LINE#         3185
  C:A6FCH         LINE#         3188
  C:A706H         LINE#         3189
  C:A711H         LINE#         3193
  C:A714H         LINE#         3194
  C:A717H         LINE#         3195
  C:A719H         LINE#         3196
BL51 BANKED LINKER/LOCATER V6.22.2.0                                                  08/13/2022  23:50:26  PAGE 61


  C:A71CH         LINE#         3197
  C:A71CH         LINE#         3201
  C:A71FH         LINE#         3202
  C:A722H         LINE#         3203
  C:A724H         LINE#         3204
  C:A727H         LINE#         3205
  C:A727H         LINE#         3208
  C:A72AH         LINE#         3209
  C:A72DH         LINE#         3210
  C:A72FH         LINE#         3211
  C:A732H         LINE#         3212
  C:A732H         LINE#         3214
  C:A734H         LINE#         3216
  C:A734H         LINE#         3218
  C:A734H         LINE#         3222
  C:A73EH         LINE#         3223
  C:A740H         LINE#         3224
  C:A747H         LINE#         3225
  C:A749H         LINE#         3226
  C:A749H         LINE#         3229
  C:A74CH         LINE#         3233
  C:A74FH         LINE#         3234
  C:A752H         LINE#         3235
  C:A755H         LINE#         3236
  C:A757H         LINE#         3237
  C:A75AH         LINE#         3238
  C:A75AH         LINE#         3239
  C:A75CH         LINE#         3240
  C:A75FH         LINE#         3241
  C:A75FH         LINE#         3245
  C:A762H         LINE#         3246
  C:A765H         LINE#         3247
  C:A767H         LINE#         3248
  C:A76AH         LINE#         3249
  C:A76AH         LINE#         3252
  C:A76DH         LINE#         3254
  C:A76DH         LINE#         3256
  C:A76DH         LINE#         3259
  C:A772H         LINE#         3260
  -------         ENDPROC       PIN35_SET_2_33
  -------         PROC          PIN36_SET_2_34
  C:A2B2H         LINE#         3265
  C:A2B2H         LINE#         3266
  C:A2B2H         LINE#         3268
  C:A2BBH         LINE#         3271
  C:A2C3H         LINE#         3274
  C:A2D8H         LINE#         3275
  C:A2D8H         LINE#         3276
  C:A2D8H         LINE#         3278
  C:A2D8H         LINE#         3281
  C:A2DBH         LINE#         3286
  C:A2DEH         LINE#         3287
  C:A2E1H         LINE#         3288
  C:A2E3H         LINE#         3289
  C:A2E6H         LINE#         3290
  C:A2E6H         LINE#         3293
  C:A2E9H         LINE#         3296
BL51 BANKED LINKER/LOCATER V6.22.2.0                                                  08/13/2022  23:50:26  PAGE 62


  C:A2ECH         LINE#         3297
  C:A2ECH         LINE#         3298
  C:A2EFH         LINE#         3304
  C:A2EFH         LINE#         3306
  C:A2EFH         LINE#         3310
  C:A2F9H         LINE#         3311
  C:A2FBH         LINE#         3312
  C:A302H         LINE#         3313
  C:A304H         LINE#         3314
  C:A304H         LINE#         3317
  C:A307H         LINE#         3321
  C:A30AH         LINE#         3323
  C:A30DH         LINE#         3324
  C:A310H         LINE#         3325
  C:A312H         LINE#         3326
  C:A315H         LINE#         3327
  C:A315H         LINE#         3329
  C:A317H         LINE#         3331
  C:A31AH         LINE#         3333
  C:A31AH         LINE#         3338
  C:A31DH         LINE#         3341
  C:A320H         LINE#         3342
  C:A320H         LINE#         3343
  C:A322H         LINE#         3344
  C:A322H         LINE#         3345
  C:A322H         LINE#         3346
  C:A324H         LINE#         3348
  C:A324H         LINE#         3350
  C:A327H         LINE#         3353
  C:A32AH         LINE#         3355
  C:A32AH         LINE#         3358
  C:A334H         LINE#         3359
  C:A33FH         LINE#         3363
  C:A342H         LINE#         3364
  C:A345H         LINE#         3365
  C:A347H         LINE#         3366
  C:A34AH         LINE#         3367
  C:A34AH         LINE#         3371
  C:A34DH         LINE#         3372
  C:A350H         LINE#         3373
  C:A352H         LINE#         3374
  C:A355H         LINE#         3375
  C:A355H         LINE#         3378
  C:A358H         LINE#         3379
  C:A35BH         LINE#         3380
  C:A35DH         LINE#         3381
  C:A360H         LINE#         3382
  C:A360H         LINE#         3384
  C:A362H         LINE#         3386
  C:A362H         LINE#         3388
  C:A362H         LINE#         3392
  C:A36CH         LINE#         3393
  C:A36EH         LINE#         3394
  C:A375H         LINE#         3395
  C:A377H         LINE#         3396
  C:A377H         LINE#         3399
  C:A37AH         LINE#         3403
BL51 BANKED LINKER/LOCATER V6.22.2.0                                                  08/13/2022  23:50:26  PAGE 63


  C:A37DH         LINE#         3404
  C:A380H         LINE#         3405
  C:A383H         LINE#         3406
  C:A385H         LINE#         3407
  C:A388H         LINE#         3408
  C:A388H         LINE#         3409
  C:A38AH         LINE#         3410
  C:A38DH         LINE#         3411
  C:A38DH         LINE#         3415
  C:A390H         LINE#         3416
  C:A393H         LINE#         3417
  C:A395H         LINE#         3418
  C:A398H         LINE#         3419
  C:A398H         LINE#         3422
  C:A39BH         LINE#         3424
  C:A39BH         LINE#         3426
  C:A39BH         LINE#         3429
  C:A3A3H         LINE#         3430
  -------         ENDPROC       PIN36_SET_2_34
  -------         PROC          PIN37_SET_2_35
  C:A4A2H         LINE#         3434
  C:A4A2H         LINE#         3435
  C:A4A2H         LINE#         3437
  C:A4ABH         LINE#         3440
  C:A4B3H         LINE#         3443
  C:A4C8H         LINE#         3444
  C:A4C8H         LINE#         3445
  C:A4C8H         LINE#         3447
  C:A4C8H         LINE#         3450
  C:A4CBH         LINE#         3455
  C:A4CEH         LINE#         3456
  C:A4D1H         LINE#         3457
  C:A4D3H         LINE#         3458
  C:A4D6H         LINE#         3459
  C:A4D6H         LINE#         3462
  C:A4D9H         LINE#         3465
  C:A4DCH         LINE#         3466
  C:A4DCH         LINE#         3467
  C:A4DFH         LINE#         3473
  C:A4DFH         LINE#         3475
  C:A4DFH         LINE#         3479
  C:A4E9H         LINE#         3480
  C:A4EBH         LINE#         3481
  C:A4F2H         LINE#         3482
  C:A4F4H         LINE#         3483
  C:A4F4H         LINE#         3486
  C:A4F7H         LINE#         3490
  C:A4FAH         LINE#         3492
  C:A4FDH         LINE#         3493
  C:A500H         LINE#         3494
  C:A502H         LINE#         3495
  C:A505H         LINE#         3496
  C:A505H         LINE#         3498
  C:A507H         LINE#         3500
  C:A50AH         LINE#         3502
  C:A50AH         LINE#         3507
  C:A50DH         LINE#         3510
BL51 BANKED LINKER/LOCATER V6.22.2.0                                                  08/13/2022  23:50:26  PAGE 64


  C:A510H         LINE#         3511
  C:A510H         LINE#         3512
  C:A512H         LINE#         3513
  C:A512H         LINE#         3514
  C:A512H         LINE#         3515
  C:A514H         LINE#         3517
  C:A514H         LINE#         3519
  C:A517H         LINE#         3522
  C:A51AH         LINE#         3524
  C:A51AH         LINE#         3527
  C:A524H         LINE#         3528
  C:A52FH         LINE#         3532
  C:A532H         LINE#         3533
  C:A535H         LINE#         3534
  C:A537H         LINE#         3535
  C:A53AH         LINE#         3536
  C:A53AH         LINE#         3540
  C:A53DH         LINE#         3541
  C:A540H         LINE#         3542
  C:A542H         LINE#         3543
  C:A545H         LINE#         3544
  C:A545H         LINE#         3547
  C:A548H         LINE#         3548
  C:A54BH         LINE#         3549
  C:A54DH         LINE#         3550
  C:A550H         LINE#         3551
  C:A550H         LINE#         3553
  C:A552H         LINE#         3555
  C:A552H         LINE#         3557
  C:A552H         LINE#         3561
  C:A55CH         LINE#         3562
  C:A55EH         LINE#         3563
  C:A565H         LINE#         3564
  C:A567H         LINE#         3565
  C:A567H         LINE#         3568
  C:A56AH         LINE#         3572
  C:A56DH         LINE#         3573
  C:A570H         LINE#         3574
  C:A573H         LINE#         3575
  C:A575H         LINE#         3576
  C:A578H         LINE#         3577
  C:A578H         LINE#         3578
  C:A57AH         LINE#         3579
  C:A57DH         LINE#         3580
  C:A57DH         LINE#         3584
  C:A580H         LINE#         3585
  C:A583H         LINE#         3586
  C:A585H         LINE#         3587
  C:A588H         LINE#         3588
  C:A588H         LINE#         3591
  C:A58BH         LINE#         3593
  C:A58BH         LINE#         3595
  C:A58BH         LINE#         3598
  C:A590H         LINE#         3599
  -------         ENDPROC       PIN37_SET_2_35
  -------         PROC          RETURN_2_36
  C:C07DH         LINE#         3603
BL51 BANKED LINKER/LOCATER V6.22.2.0                                                  08/13/2022  23:50:26  PAGE 65


  C:C07DH         LINE#         3604
  C:C07DH         LINE#         3605
  C:C07DH         LINE#         3606
  C:C07DH         LINE#         3607
  C:C080H         LINE#         3608
  -------         ENDPROC       RETURN_2_36
  -------         PROC          TIME_SET_MANUAL_SET_2_37
  C:970EH         LINE#         3613
  C:970EH         LINE#         3614
  C:970EH         LINE#         3618
  C:9716H         LINE#         3623
  C:971EH         LINE#         3625
  C:972FH         LINE#         3626
  C:973AH         LINE#         3627
  C:9745H         LINE#         3628
  C:974FH         LINE#         3630
  C:9758H         LINE#         3631
  C:9761H         LINE#         3633
  C:976AH         LINE#         3634
  C:9773H         LINE#         3637
  C:977CH         LINE#         3638
  C:9785H         LINE#         3640
  C:978EH         LINE#         3641
  C:9797H         LINE#         3643
  C:97A0H         LINE#         3644
  C:97A9H         LINE#         3646
  C:97B2H         LINE#         3647
  C:97BBH         LINE#         3648
  C:97BBH         LINE#         3651
  C:97E1H         LINE#         3652
  C:97E1H         LINE#         3653
  C:97E1H         LINE#         3655
  C:97E1H         LINE#         3658
  C:97E4H         LINE#         3661
  C:97EDH         LINE#         3662
  C:97F6H         LINE#         3664
  C:97F7H         LINE#         3666
  C:97F7H         LINE#         3667
  C:97F7H         LINE#         3670
  C:9804H         LINE#         3673
  C:9807H         LINE#         3677
  C:980DH         LINE#         3678
  C:9812H         LINE#         3679
  C:9812H         LINE#         3680
  C:981AH         LINE#         3681
  C:981DH         LINE#         3682
  C:981DH         LINE#         3683
  C:9820H         LINE#         3685
  C:9820H         LINE#         3686
  C:9823H         LINE#         3689
  C:9829H         LINE#         3692
  C:9833H         LINE#         3693
  C:9841H         LINE#         3696
  C:9844H         LINE#         3700
  C:984AH         LINE#         3701
  C:9855H         LINE#         3702
  C:9858H         LINE#         3703
BL51 BANKED LINKER/LOCATER V6.22.2.0                                                  08/13/2022  23:50:26  PAGE 66


  C:9858H         LINE#         3704
  C:985BH         LINE#         3706
  C:985BH         LINE#         3707
  C:985EH         LINE#         3710
  C:9864H         LINE#         3713
  C:986EH         LINE#         3714
  C:988EH         LINE#         3717
  C:9891H         LINE#         3721
  C:9897H         LINE#         3722
  C:98A2H         LINE#         3723
  C:98A5H         LINE#         3724
  C:98A5H         LINE#         3725
  C:98A8H         LINE#         3727
  C:98A8H         LINE#         3728
  C:98ABH         LINE#         3731
  C:98B1H         LINE#         3734
  C:98BBH         LINE#         3735
  C:98C9H         LINE#         3738
  C:98CCH         LINE#         3742
  C:98CFH         LINE#         3743
  C:98D2H         LINE#         3744
  C:98D5H         LINE#         3745
  C:98D5H         LINE#         3746
  C:98D8H         LINE#         3748
  C:98D8H         LINE#         3749
  C:98DBH         LINE#         3752
  C:98E1H         LINE#         3755
  C:98EBH         LINE#         3756
  C:98F3H         LINE#         3759
  C:98F6H         LINE#         3763
  C:98F9H         LINE#         3764
  C:98FFH         LINE#         3765
  C:9902H         LINE#         3766
  C:9902H         LINE#         3767
  C:9904H         LINE#         3769
  C:9904H         LINE#         3770
  C:9907H         LINE#         3773
  C:990DH         LINE#         3776
  C:9917H         LINE#         3777
  C:991FH         LINE#         3780
  C:9922H         LINE#         3784
  C:9925H         LINE#         3785
  C:992BH         LINE#         3786
  C:9933H         LINE#         3787
  C:9933H         LINE#         3788
  C:9933H         LINE#         3789
  C:9933H         LINE#         3790
  -------         ENDPROC       TIME_SET_MANUAL_SET_2_37
  -------         PROC          TIME_SET_AUTO_SET_2_38
  C:BDD8H         LINE#         3792
  C:BDD8H         LINE#         3793
  C:BDD8H         LINE#         3796
  C:BDE0H         LINE#         3799
  C:BDE4H         LINE#         3800
  C:BDE4H         LINE#         3801
  C:BDE4H         LINE#         3803
  C:BDE4H         LINE#         3806
BL51 BANKED LINKER/LOCATER V6.22.2.0                                                  08/13/2022  23:50:26  PAGE 67


  C:BDE7H         LINE#         3809
  C:BDF0H         LINE#         3810
  C:BDF9H         LINE#         3812
  C:BDF9H         LINE#         3814
  C:BDF9H         LINE#         3815
  -------         ENDPROC       TIME_SET_AUTO_SET_2_38
  -------         PROC          RETURN_2_39
  C:C081H         LINE#         3817
  C:C081H         LINE#         3818
  C:C081H         LINE#         3819
  C:C081H         LINE#         3820
  C:C081H         LINE#         3821
  C:C084H         LINE#         3822
  -------         ENDPROC       RETURN_2_39
  -------         PROC          TCP_PORT_SET_2_40
  C:9B44H         LINE#         3826
  C:9B44H         LINE#         3827
  C:9B44H         LINE#         3829
  C:9B4CH         LINE#         3832
  C:9B54H         LINE#         3834
  C:9B69H         LINE#         3835
  C:9B7CH         LINE#         3836
  C:9B8EH         LINE#         3837
  C:9BA3H         LINE#         3838
  C:9BB6H         LINE#         3841
  C:9BCCH         LINE#         3842
  C:9BDFH         LINE#         3843
  C:9BF7H         LINE#         3844
  C:9C0CH         LINE#         3845
  C:9C1FH         LINE#         3848
  C:9C28H         LINE#         3849
  C:9C31H         LINE#         3850
  C:9C31H         LINE#         3854
  C:9C43H         LINE#         3855
  C:9C43H         LINE#         3856
  C:9C43H         LINE#         3858
  C:9C43H         LINE#         3861
  C:9C46H         LINE#         3864
  C:9C4FH         LINE#         3865
  C:9C58H         LINE#         3867
  C:9C59H         LINE#         3869
  C:9C59H         LINE#         3870
  C:9C59H         LINE#         3873
  C:9C5CH         LINE#         3875
  C:9C5DH         LINE#         3877
  C:9C5DH         LINE#         3878
  C:9C60H         LINE#         3880
  C:9C73H         LINE#         3881
  C:9C81H         LINE#         3882
  C:9C8BH         LINE#         3883
  C:9C97H         LINE#         3884
  C:9CA1H         LINE#         3885
  C:9CA1H         LINE#         3889
  C:9CA4H         LINE#         3892
  C:9CA7H         LINE#         3893
  C:9CADH         LINE#         3894
  C:9CADH         LINE#         3895
BL51 BANKED LINKER/LOCATER V6.22.2.0                                                  08/13/2022  23:50:26  PAGE 68


  C:9CB0H         LINE#         3896
  C:9CB0H         LINE#         3898
  C:9CB3H         LINE#         3900
  C:9CB3H         LINE#         3901
  C:9CB6H         LINE#         3903
  C:9CC5H         LINE#         3905
  C:9CD3H         LINE#         3906
  C:9CDDH         LINE#         3907
  C:9CE9H         LINE#         3908
  C:9CF3H         LINE#         3909
  C:9CF3H         LINE#         3912
  C:9CF6H         LINE#         3915
  C:9CF9H         LINE#         3916
  C:9CFFH         LINE#         3917
  C:9D07H         LINE#         3918
  C:9D07H         LINE#         3920
  C:9D07H         LINE#         3922
  C:9D07H         LINE#         3923
  -------         ENDPROC       TCP_PORT_SET_2_40
  -------         PROC          STA_IP_2_41
  C:BB67H         LINE#         3925
  C:BB67H         LINE#         3926
  C:BB67H         LINE#         3928
  C:BB6FH         LINE#         3931
  C:BB77H         LINE#         3932
  C:BB77H         LINE#         3933
  C:BB77H         LINE#         3935
  C:BB77H         LINE#         3938
  C:BB7AH         LINE#         3941
  C:BB83H         LINE#         3942
  C:BB8CH         LINE#         3944
  C:BB8DH         LINE#         3946
  C:BB8DH         LINE#         3947
  C:BB8DH         LINE#         3950
  C:BB90H         LINE#         3953
  C:BB99H         LINE#         3954
  C:BBA2H         LINE#         3956
  C:BBA2H         LINE#         3957
  C:BBA2H         LINE#         3959
  -------         ENDPROC       STA_IP_2_41
  -------         PROC          AP_IP_2_42
  C:BBA3H         LINE#         3961
  C:BBA3H         LINE#         3962
  C:BBA3H         LINE#         3964
  C:BBABH         LINE#         3967
  C:BBB3H         LINE#         3968
  C:BBB3H         LINE#         3969
  C:BBB3H         LINE#         3971
  C:BBB3H         LINE#         3974
  C:BBB6H         LINE#         3977
  C:BBBFH         LINE#         3978
  C:BBC8H         LINE#         3980
  C:BBC9H         LINE#         3982
  C:BBC9H         LINE#         3983
  C:BBC9H         LINE#         3986
  C:BBCCH         LINE#         3989
  C:BBD5H         LINE#         3990
BL51 BANKED LINKER/LOCATER V6.22.2.0                                                  08/13/2022  23:50:26  PAGE 69


  C:BBDEH         LINE#         3992
  C:BBDEH         LINE#         3993
  C:BBDEH         LINE#         3995
  -------         ENDPROC       AP_IP_2_42
  -------         PROC          RETURN_2_43
  C:BF88H         LINE#         3997
  C:BF88H         LINE#         3998
  C:BF88H         LINE#         3999
  C:BF88H         LINE#         4000
  C:BF91H         LINE#         4001
  C:BF9AH         LINE#         4002
  -------         ENDPROC       RETURN_2_43
  -------         PROC          TASK_STARTTIME_SET_3_44
  C:9206H         LINE#         4008
  C:9206H         LINE#         4009
  C:9206H         LINE#         4011
  C:920EH         LINE#         4014
  C:9217H         LINE#         4015
  C:922CH         LINE#         4016
  C:922CH         LINE#         4017
  C:922CH         LINE#         4018
  C:922FH         LINE#         4024
  C:9232H         LINE#         4025
  C:9237H         LINE#         4026
  C:923AH         LINE#         4027
  C:923AH         LINE#         4028
  C:923DH         LINE#         4029
  C:923DH         LINE#         4030
  C:9242H         LINE#         4031
  C:9245H         LINE#         4032
  C:924AH         LINE#         4033
  C:924DH         LINE#         4034
  C:924DH         LINE#         4035
  C:9250H         LINE#         4036
  C:9250H         LINE#         4037
  C:9255H         LINE#         4038
  C:9258H         LINE#         4039
  C:925DH         LINE#         4040
  C:9260H         LINE#         4041
  C:9260H         LINE#         4042
  C:9263H         LINE#         4043
  C:9263H         LINE#         4044
  C:9268H         LINE#         4045
  C:926BH         LINE#         4046
  C:9270H         LINE#         4047
  C:9273H         LINE#         4048
  C:9273H         LINE#         4049
  C:9276H         LINE#         4050
  C:9276H         LINE#         4051
  C:9279H         LINE#         4052
  C:927CH         LINE#         4053
  C:9281H         LINE#         4054
  C:9284H         LINE#         4055
  C:9284H         LINE#         4056
  C:9286H         LINE#         4057
  C:9286H         LINE#         4058
  C:928BH         LINE#         4059
BL51 BANKED LINKER/LOCATER V6.22.2.0                                                  08/13/2022  23:50:26  PAGE 70


  C:928EH         LINE#         4060
  C:9293H         LINE#         4061
  C:92A2H         LINE#         4062
  C:92A7H         LINE#         4063
  C:92A7H         LINE#         4064
  C:92A7H         LINE#         4065
  C:92A7H         LINE#         4068
  C:92B9H         LINE#         4069
  C:92B9H         LINE#         4070
  C:92B9H         LINE#         4072
  C:92B9H         LINE#         4075
  C:92BCH         LINE#         4079
  C:92BDH         LINE#         4081
  C:92BDH         LINE#         4082
  C:92BDH         LINE#         4084
  C:92DBH         LINE#         4085
  C:92DBH         LINE#         4086
  C:92DBH         LINE#         4087
  C:92E1H         LINE#         4088
  C:92EDH         LINE#         4089
  C:92F8H         LINE#         4090
  C:92FBH         LINE#         4092
  C:92FBH         LINE#         4093
  C:9304H         LINE#         4094
  C:9310H         LINE#         4095
  C:931BH         LINE#         4096
  C:931EH         LINE#         4098
  C:931EH         LINE#         4099
  C:9327H         LINE#         4100
  C:9333H         LINE#         4101
  C:933BH         LINE#         4102
  C:933EH         LINE#         4104
  C:933EH         LINE#         4105
  C:9347H         LINE#         4106
  C:9352H         LINE#         4107
  C:935AH         LINE#         4108
  C:935CH         LINE#         4110
  C:935CH         LINE#         4111
  C:9365H         LINE#         4112
  C:9370H         LINE#         4113
  C:9378H         LINE#         4114
  C:937AH         LINE#         4116
  C:937AH         LINE#         4117
  C:9383H         LINE#         4118
  C:9391H         LINE#         4119
  C:939CH         LINE#         4120
  C:939CH         LINE#         4121
  C:939CH         LINE#         4124
  C:939FH         LINE#         4130
  C:93A5H         LINE#         4131
  C:93A8H         LINE#         4132
  C:93ABH         LINE#         4133
  C:93ABH         LINE#         4134
  C:93AEH         LINE#         4136
  C:93AEH         LINE#         4137
  C:93AEH         LINE#         4139
  C:93CCH         LINE#         4140
BL51 BANKED LINKER/LOCATER V6.22.2.0                                                  08/13/2022  23:50:26  PAGE 71


  C:93CCH         LINE#         4141
  C:93CCH         LINE#         4142
  C:93CFH         LINE#         4143
  C:93DBH         LINE#         4144
  C:93E6H         LINE#         4145
  C:93E9H         LINE#         4147
  C:93E9H         LINE#         4148
  C:93EFH         LINE#         4149
  C:93FBH         LINE#         4150
  C:9403H         LINE#         4151
  C:9406H         LINE#         4153
  C:9406H         LINE#         4154
  C:940CH         LINE#         4155
  C:9418H         LINE#         4156
  C:9420H         LINE#         4157
  C:9423H         LINE#         4159
  C:9423H         LINE#         4160
  C:9429H         LINE#         4161
  C:9434H         LINE#         4162
  C:943CH         LINE#         4163
  C:943EH         LINE#         4165
  C:943EH         LINE#         4166
  C:9444H         LINE#         4167
  C:944FH         LINE#         4168
  C:9457H         LINE#         4169
  C:9459H         LINE#         4171
  C:9459H         LINE#         4172
  C:945FH         LINE#         4173
  C:946DH         LINE#         4174
  C:9478H         LINE#         4175
  C:9478H         LINE#         4176
  C:9478H         LINE#         4179
  C:947BH         LINE#         4185
  C:947EH         LINE#         4186
  C:9481H         LINE#         4187
  C:9489H         LINE#         4188
  C:9489H         LINE#         4189
  C:9489H         LINE#         4190
  C:9489H         LINE#         4192
  -------         ENDPROC       TASK_STARTTIME_SET_3_44
  -------         PROC          TASK_ENDTIME_SET_3_45
  C:948AH         LINE#         4194
  C:948AH         LINE#         4195
  C:948AH         LINE#         4197
  C:9492H         LINE#         4200
  C:949BH         LINE#         4201
  C:94B0H         LINE#         4202
  C:94B0H         LINE#         4203
  C:94B0H         LINE#         4204
  C:94B3H         LINE#         4205
  C:94B6H         LINE#         4206
  C:94BBH         LINE#         4207
  C:94BEH         LINE#         4208
  C:94BEH         LINE#         4209
  C:94C1H         LINE#         4210
  C:94C1H         LINE#         4211
  C:94C4H         LINE#         4212
BL51 BANKED LINKER/LOCATER V6.22.2.0                                                  08/13/2022  23:50:26  PAGE 72


  C:94C7H         LINE#         4213
  C:94CCH         LINE#         4214
  C:94CFH         LINE#         4215
  C:94CFH         LINE#         4216
  C:94D2H         LINE#         4217
  C:94D2H         LINE#         4218
  C:94D5H         LINE#         4219
  C:94D8H         LINE#         4220
  C:94DDH         LINE#         4221
  C:94E0H         LINE#         4222
  C:94E0H         LINE#         4223
  C:94E3H         LINE#         4224
  C:94E3H         LINE#         4225
  C:94E6H         LINE#         4226
  C:94E9H         LINE#         4227
  C:94EEH         LINE#         4228
  C:94F1H         LINE#         4229
  C:94F1H         LINE#         4230
  C:94F4H         LINE#         4231
  C:94F4H         LINE#         4232
  C:94F7H         LINE#         4233
  C:94FAH         LINE#         4234
  C:94FFH         LINE#         4235
  C:9502H         LINE#         4236
  C:9502H         LINE#         4237
  C:9504H         LINE#         4238
  C:9504H         LINE#         4239
  C:9509H         LINE#         4240
  C:950CH         LINE#         4241
  C:9511H         LINE#         4242
  C:9520H         LINE#         4243
  C:9525H         LINE#         4244
  C:9525H         LINE#         4245
  C:9525H         LINE#         4246
  C:9525H         LINE#         4249
  C:9537H         LINE#         4250
  C:9537H         LINE#         4251
  C:9537H         LINE#         4253
  C:9537H         LINE#         4256
  C:953AH         LINE#         4260
  C:953BH         LINE#         4262
  C:953BH         LINE#         4263
  C:953BH         LINE#         4265
  C:9559H         LINE#         4266
  C:9559H         LINE#         4267
  C:9559H         LINE#         4268
  C:9562H         LINE#         4269
  C:956EH         LINE#         4270
  C:9579H         LINE#         4271
  C:957CH         LINE#         4273
  C:957CH         LINE#         4274
  C:9585H         LINE#         4275
  C:9591H         LINE#         4276
  C:959CH         LINE#         4277
  C:959FH         LINE#         4279
  C:959FH         LINE#         4280
  C:95A8H         LINE#         4281
BL51 BANKED LINKER/LOCATER V6.22.2.0                                                  08/13/2022  23:50:26  PAGE 73


  C:95B4H         LINE#         4282
  C:95BCH         LINE#         4283
  C:95BFH         LINE#         4285
  C:95BFH         LINE#         4286
  C:95C8H         LINE#         4287
  C:95D3H         LINE#         4288
  C:95DBH         LINE#         4289
  C:95DDH         LINE#         4291
  C:95DDH         LINE#         4292
  C:95E6H         LINE#         4293
  C:95F1H         LINE#         4294
  C:95F9H         LINE#         4295
  C:95FBH         LINE#         4297
  C:95FBH         LINE#         4298
  C:9604H         LINE#         4299
  C:9612H         LINE#         4300
  C:961DH         LINE#         4301
  C:961DH         LINE#         4302
  C:961DH         LINE#         4305
  C:9620H         LINE#         4311
  C:9626H         LINE#         4312
  C:9629H         LINE#         4313
  C:962CH         LINE#         4314
  C:962CH         LINE#         4315
  C:962FH         LINE#         4317
  C:962FH         LINE#         4318
  C:962FH         LINE#         4320
  C:964DH         LINE#         4321
  C:964DH         LINE#         4322
  C:964DH         LINE#         4323
  C:9653H         LINE#         4324
  C:965FH         LINE#         4325
  C:966AH         LINE#         4326
  C:966DH         LINE#         4328
  C:966DH         LINE#         4329
  C:9673H         LINE#         4330
  C:967FH         LINE#         4331
  C:9687H         LINE#         4332
  C:968AH         LINE#         4334
  C:968AH         LINE#         4335
  C:9690H         LINE#         4336
  C:969CH         LINE#         4337
  C:96A4H         LINE#         4338
  C:96A7H         LINE#         4340
  C:96A7H         LINE#         4341
  C:96ADH         LINE#         4342
  C:96B8H         LINE#         4343
  C:96C0H         LINE#         4344
  C:96C2H         LINE#         4346
  C:96C2H         LINE#         4347
  C:96C8H         LINE#         4348
  C:96D3H         LINE#         4349
  C:96DBH         LINE#         4350
  C:96DDH         LINE#         4352
  C:96DDH         LINE#         4353
  C:96E3H         LINE#         4354
  C:96F1H         LINE#         4355
BL51 BANKED LINKER/LOCATER V6.22.2.0                                                  08/13/2022  23:50:26  PAGE 74


  C:96FCH         LINE#         4356
  C:96FCH         LINE#         4357
  C:96FCH         LINE#         4360
  C:96FFH         LINE#         4366
  C:9702H         LINE#         4367
  C:9705H         LINE#         4368
  C:970DH         LINE#         4369
  C:970DH         LINE#         4370
  C:970DH         LINE#         4371
  C:970DH         LINE#         4372
  -------         ENDPROC       TASK_ENDTIME_SET_3_45
  -------         PROC          TASK_OVERTIME_SET_3_46
  C:1B00H         LINE#         4374
  C:1B00H         LINE#         4375
  C:1B00H         LINE#         4377
  C:1B08H         LINE#         4380
  C:1B0BH         LINE#         4381
  C:1B32H         LINE#         4382
  C:1B32H         LINE#         4383
  C:1B32H         LINE#         4384
  C:1B35H         LINE#         4401
  C:1B41H         LINE#         4402
  C:1B59H         LINE#         4403
  C:1B71H         LINE#         4404
  C:1B83H         LINE#         4409
  C:1BBAH         LINE#         4410
  C:1BEBH         LINE#         4413
  C:1C25H         LINE#         4414
  C:1C59H         LINE#         4417
  C:1C96H         LINE#         4418
  C:1CB6H         LINE#         4419
  C:1CB9H         LINE#         4420
  C:1CB9H         LINE#         4421
  C:1CBCH         LINE#         4423
  C:1CCBH         LINE#         4424
  C:1CE3H         LINE#         4425
  C:1CFBH         LINE#         4426
  C:1D0DH         LINE#         4428
  C:1D44H         LINE#         4429
  C:1D75H         LINE#         4431
  C:1DAFH         LINE#         4432
  C:1DE3H         LINE#         4434
  C:1E20H         LINE#         4435
  C:1E40H         LINE#         4437
  C:1E43H         LINE#         4438
  C:1E43H         LINE#         4439
  C:1E46H         LINE#         4441
  C:1E55H         LINE#         4442
  C:1E6DH         LINE#         4443
  C:1E85H         LINE#         4444
  C:1E97H         LINE#         4446
  C:1ECEH         LINE#         4447
  C:1EFFH         LINE#         4449
  C:1F39H         LINE#         4450
  C:1F6DH         LINE#         4452
  C:1FAAH         LINE#         4453
  C:1FCAH         LINE#         4455
BL51 BANKED LINKER/LOCATER V6.22.2.0                                                  08/13/2022  23:50:26  PAGE 75


  C:1FCDH         LINE#         4456
  C:1FCDH         LINE#         4457
  C:1FD0H         LINE#         4459
  C:1FDFH         LINE#         4460
  C:1FF7H         LINE#         4461
  C:200FH         LINE#         4462
  C:2021H         LINE#         4464
  C:2058H         LINE#         4465
  C:2089H         LINE#         4467
  C:20C3H         LINE#         4468
  C:20F7H         LINE#         4470
  C:2134H         LINE#         4471
  C:2154H         LINE#         4473
  C:2157H         LINE#         4474
  C:2157H         LINE#         4475
  C:215AH         LINE#         4477
  C:2169H         LINE#         4478
  C:2181H         LINE#         4479
  C:2199H         LINE#         4480
  C:21ABH         LINE#         4482
  C:21E2H         LINE#         4483
  C:2213H         LINE#         4485
  C:224DH         LINE#         4486
  C:2281H         LINE#         4488
  C:22BEH         LINE#         4489
  C:22DEH         LINE#         4491
  C:22E1H         LINE#         4492
  C:22E1H         LINE#         4493
  C:22E4H         LINE#         4495
  C:22F3H         LINE#         4496
  C:230BH         LINE#         4497
  C:2323H         LINE#         4498
  C:2335H         LINE#         4500
  C:236CH         LINE#         4501
  C:239DH         LINE#         4503
  C:23D7H         LINE#         4504
  C:240BH         LINE#         4506
  C:2448H         LINE#         4507
  C:247FH         LINE#         4509
  C:247FH         LINE#         4510
  C:247FH         LINE#         4511
  C:247FH         LINE#         4514
  C:249DH         LINE#         4515
  C:249DH         LINE#         4516
  C:249DH         LINE#         4518
  C:249DH         LINE#         4521
  C:24A0H         LINE#         4525
  C:24A1H         LINE#         4527
  C:24A1H         LINE#         4528
  C:24A1H         LINE#         4530
  C:24C5H         LINE#         4531
  C:24C5H         LINE#         4532
  C:24C5H         LINE#         4533
  C:24E8H         LINE#         4534
  C:24F8H         LINE#         4535
  C:24FAH         LINE#         4537
  C:24FAH         LINE#         4538
BL51 BANKED LINKER/LOCATER V6.22.2.0                                                  08/13/2022  23:50:26  PAGE 76


  C:251DH         LINE#         4539
  C:2534H         LINE#         4540
  C:2537H         LINE#         4542
  C:2537H         LINE#         4543
  C:255AH         LINE#         4544
  C:256AH         LINE#         4545
  C:256CH         LINE#         4547
  C:256CH         LINE#         4548
  C:258FH         LINE#         4549
  C:25A3H         LINE#         4550
  C:25A6H         LINE#         4552
  C:25A6H         LINE#         4553
  C:25C6H         LINE#         4554
  C:25D3H         LINE#         4555
  C:25D5H         LINE#         4557
  C:25D5H         LINE#         4558
  C:25F8H         LINE#         4559
  C:260CH         LINE#         4560
  C:260CH         LINE#         4561
  C:260CH         LINE#         4564
  C:260FH         LINE#         4570
  C:2615H         LINE#         4571
  C:2618H         LINE#         4572
  C:2618H         LINE#         4573
  C:2618H         LINE#         4574
  C:261BH         LINE#         4575
  C:261BH         LINE#         4576
  C:261EH         LINE#         4578
  C:261EH         LINE#         4579
  C:261EH         LINE#         4581
  C:263FH         LINE#         4582
  C:263FH         LINE#         4583
  C:263FH         LINE#         4584
  C:265AH         LINE#         4585
  C:266AH         LINE#         4586
  C:266CH         LINE#         4588
  C:266CH         LINE#         4589
  C:2687H         LINE#         4590
  C:269EH         LINE#         4591
  C:26A1H         LINE#         4593
  C:26A1H         LINE#         4594
  C:26BCH         LINE#         4595
  C:26CCH         LINE#         4596
  C:26CEH         LINE#         4598
  C:26CEH         LINE#         4599
  C:26E9H         LINE#         4600
  C:26FDH         LINE#         4601
  C:2700H         LINE#         4603
  C:2700H         LINE#         4604
  C:2718H         LINE#         4605
  C:2725H         LINE#         4606
  C:2727H         LINE#         4608
  C:2727H         LINE#         4609
  C:2742H         LINE#         4610
  C:2756H         LINE#         4611
  C:2756H         LINE#         4612
  C:2756H         LINE#         4615
BL51 BANKED LINKER/LOCATER V6.22.2.0                                                  08/13/2022  23:50:26  PAGE 77


  C:2759H         LINE#         4621
  C:275FH         LINE#         4622
  C:2762H         LINE#         4623
  C:2765H         LINE#         4624
  C:2765H         LINE#         4625
  C:2768H         LINE#         4627
  C:2768H         LINE#         4628
  C:2768H         LINE#         4630
  C:2789H         LINE#         4631
  C:2789H         LINE#         4632
  C:2789H         LINE#         4633
  C:279DH         LINE#         4634
  C:27ADH         LINE#         4635
  C:27AFH         LINE#         4637
  C:27AFH         LINE#         4638
  C:27C3H         LINE#         4639
  C:27DAH         LINE#         4640
  C:27DDH         LINE#         4642
  C:27DDH         LINE#         4643
  C:27F1H         LINE#         4644
  C:27FEH         LINE#         4645
  C:2800H         LINE#         4647
  C:2800H         LINE#         4648
  C:2814H         LINE#         4649
  C:2828H         LINE#         4650
  C:282BH         LINE#         4652
  C:282BH         LINE#         4653
  C:283CH         LINE#         4654
  C:2849H         LINE#         4655
  C:284BH         LINE#         4657
  C:284BH         LINE#         4658
  C:285FH         LINE#         4659
  C:2873H         LINE#         4660
  C:2873H         LINE#         4661
  C:2873H         LINE#         4664
  C:2876H         LINE#         4670
  C:287CH         LINE#         4671
  C:2882H         LINE#         4672
  C:2885H         LINE#         4673
  C:2885H         LINE#         4674
  C:2888H         LINE#         4676
  C:2888H         LINE#         4677
  C:2888H         LINE#         4679
  C:28A6H         LINE#         4680
  C:28A6H         LINE#         4681
  C:28A6H         LINE#         4682
  C:28B2H         LINE#         4683
  C:28C2H         LINE#         4684
  C:28C4H         LINE#         4686
  C:28C4H         LINE#         4687
  C:28D0H         LINE#         4688
  C:28E7H         LINE#         4689
  C:28EAH         LINE#         4691
  C:28EAH         LINE#         4692
  C:28F6H         LINE#         4693
  C:2903H         LINE#         4694
  C:2905H         LINE#         4696
BL51 BANKED LINKER/LOCATER V6.22.2.0                                                  08/13/2022  23:50:26  PAGE 78


  C:2905H         LINE#         4697
  C:2911H         LINE#         4698
  C:2925H         LINE#         4699
  C:2928H         LINE#         4701
  C:2928H         LINE#         4702
  C:2934H         LINE#         4703
  C:2941H         LINE#         4704
  C:2943H         LINE#         4706
  C:2943H         LINE#         4707
  C:294FH         LINE#         4708
  C:2963H         LINE#         4709
  C:2963H         LINE#         4710
  C:2963H         LINE#         4713
  C:2966H         LINE#         4719
  C:2969H         LINE#         4720
  C:296CH         LINE#         4721
  C:2974H         LINE#         4722
  C:2974H         LINE#         4723
  C:2974H         LINE#         4725
  C:2974H         LINE#         4726
  -------         ENDPROC       TASK_OVERTIME_SET_3_46
  -------         PROC          TASK_OVERTIME_MODE_SET_3_47
  C:A17CH         LINE#         4728
  C:A17CH         LINE#         4729
  C:A17CH         LINE#         4731
  C:A184H         LINE#         4734
  C:A187H         LINE#         4735
  C:A1A0H         LINE#         4736
  C:A1A0H         LINE#         4737
  C:A1A0H         LINE#         4738
  C:A1A3H         LINE#         4739
  C:A1A6H         LINE#         4740
  C:A1A6H         LINE#         4741
  C:A1A8H         LINE#         4746
  C:A1A8H         LINE#         4747
  C:A1ABH         LINE#         4748
  C:A1AEH         LINE#         4749
  C:A1AEH         LINE#         4750
  C:A1B0H         LINE#         4751
  C:A1B0H         LINE#         4752
  C:A1B0H         LINE#         4753
  C:A1B2H         LINE#         4754
  C:A1B2H         LINE#         4755
  C:A1B5H         LINE#         4756
  C:A1B8H         LINE#         4757
  C:A1B8H         LINE#         4758
  C:A1BAH         LINE#         4759
  C:A1BAH         LINE#         4760
  C:A1BAH         LINE#         4761
  C:A1BCH         LINE#         4762
  C:A1BCH         LINE#         4763
  C:A1BFH         LINE#         4764
  C:A1C2H         LINE#         4765
  C:A1C2H         LINE#         4766
  C:A1C4H         LINE#         4767
  C:A1C4H         LINE#         4768
  C:A1C4H         LINE#         4769
BL51 BANKED LINKER/LOCATER V6.22.2.0                                                  08/13/2022  23:50:26  PAGE 79


  C:A1C6H         LINE#         4770
  C:A1C6H         LINE#         4771
  C:A1C9H         LINE#         4772
  C:A1CCH         LINE#         4773
  C:A1CCH         LINE#         4774
  C:A1CEH         LINE#         4775
  C:A1CEH         LINE#         4776
  C:A1CEH         LINE#         4777
  C:A1D0H         LINE#         4778
  C:A1D0H         LINE#         4779
  C:A1D3H         LINE#         4780
  C:A1D6H         LINE#         4781
  C:A1DFH         LINE#         4782
  C:A1E1H         LINE#         4783
  C:A1EAH         LINE#         4784
  C:A1EAH         LINE#         4785
  C:A1EAH         LINE#         4786
  C:A1EAH         LINE#         4789
  C:A1F5H         LINE#         4790
  C:A1F5H         LINE#         4791
  C:A1F5H         LINE#         4793
  C:A1F5H         LINE#         4796
  C:A1F8H         LINE#         4798
  C:A1F9H         LINE#         4800
  C:A1F9H         LINE#         4801
  C:A1FCH         LINE#         4803
  C:A217H         LINE#         4804
  C:A217H         LINE#         4805
  C:A217H         LINE#         4807
  C:A221H         LINE#         4808
  C:A223H         LINE#         4809
  C:A22BH         LINE#         4810
  C:A22DH         LINE#         4811
  C:A22DH         LINE#         4814
  C:A22DH         LINE#         4815
  C:A230H         LINE#         4816
  C:A230H         LINE#         4818
  C:A23AH         LINE#         4819
  C:A23CH         LINE#         4820
  C:A243H         LINE#         4821
  C:A245H         LINE#         4822
  C:A245H         LINE#         4825
  C:A245H         LINE#         4826
  C:A248H         LINE#         4827
  C:A248H         LINE#         4829
  C:A252H         LINE#         4830
  C:A254H         LINE#         4831
  C:A25BH         LINE#         4832
  C:A25DH         LINE#         4833
  C:A25DH         LINE#         4836
  C:A25DH         LINE#         4837
  C:A25FH         LINE#         4838
  C:A25FH         LINE#         4840
  C:A269H         LINE#         4841
  C:A26BH         LINE#         4842
  C:A272H         LINE#         4843
  C:A274H         LINE#         4844
BL51 BANKED LINKER/LOCATER V6.22.2.0                                                  08/13/2022  23:50:26  PAGE 80


  C:A274H         LINE#         4847
  C:A274H         LINE#         4848
  C:A276H         LINE#         4849
  C:A276H         LINE#         4851
  C:A280H         LINE#         4852
  C:A282H         LINE#         4853
  C:A289H         LINE#         4854
  C:A28BH         LINE#         4855
  C:A28BH         LINE#         4858
  C:A28BH         LINE#         4859
  C:A28DH         LINE#         4860
  C:A28DH         LINE#         4862
  C:A297H         LINE#         4863
  C:A299H         LINE#         4864
  C:A2A0H         LINE#         4865
  C:A2A2H         LINE#         4866
  C:A2A2H         LINE#         4869
  C:A2A5H         LINE#         4870
  C:A2A5H         LINE#         4871
  C:A2A5H         LINE#         4874
  C:A2A8H         LINE#         4875
  C:A2B1H         LINE#         4876
  C:A2B1H         LINE#         4878
  C:A2B1H         LINE#         4879
  C:A2B1H         LINE#         4880
  -------         ENDPROC       TASK_OVERTIME_MODE_SET_3_47
  -------         PROC          TASK_ONTIME_SET_3_48
  C:2975H         LINE#         4882
  C:2975H         LINE#         4883
  C:2975H         LINE#         4886
  C:297DH         LINE#         4889
  C:2986H         LINE#         4890
  C:29ADH         LINE#         4891
  C:29ADH         LINE#         4892
  C:29ADH         LINE#         4893
  C:29B0H         LINE#         4896
  C:29BFH         LINE#         4897
  C:29D7H         LINE#         4898
  C:29EFH         LINE#         4899
  C:2A01H         LINE#         4904
  C:2A38H         LINE#         4905
  C:2A69H         LINE#         4908
  C:2AA3H         LINE#         4909
  C:2AD7H         LINE#         4912
  C:2B14H         LINE#         4913
  C:2B34H         LINE#         4914
  C:2B37H         LINE#         4915
  C:2B37H         LINE#         4916
  C:2B3AH         LINE#         4918
  C:2B49H         LINE#         4919
  C:2B61H         LINE#         4920
  C:2B79H         LINE#         4921
  C:2B8BH         LINE#         4926
  C:2BC2H         LINE#         4927
  C:2BF3H         LINE#         4930
  C:2C2DH         LINE#         4931
  C:2C61H         LINE#         4934
BL51 BANKED LINKER/LOCATER V6.22.2.0                                                  08/13/2022  23:50:26  PAGE 81


  C:2C9EH         LINE#         4935
  C:2CBEH         LINE#         4937
  C:2CC1H         LINE#         4938
  C:2CC1H         LINE#         4939
  C:2CC4H         LINE#         4941
  C:2CD3H         LINE#         4942
  C:2CEBH         LINE#         4943
  C:2D03H         LINE#         4944
  C:2D15H         LINE#         4949
  C:2D4CH         LINE#         4950
  C:2D7DH         LINE#         4953
  C:2DB7H         LINE#         4954
  C:2DEBH         LINE#         4957
  C:2E28H         LINE#         4958
  C:2E48H         LINE#         4960
  C:2E4BH         LINE#         4961
  C:2E4BH         LINE#         4962
  C:2E4EH         LINE#         4964
  C:2E5DH         LINE#         4965
  C:2E75H         LINE#         4966
  C:2E8DH         LINE#         4967
  C:2E9FH         LINE#         4972
  C:2ED6H         LINE#         4973
  C:2F07H         LINE#         4976
  C:2F41H         LINE#         4977
  C:2F75H         LINE#         4980
  C:2FB2H         LINE#         4981
  C:2FD2H         LINE#         4983
  C:2FD5H         LINE#         4984
  C:2FD5H         LINE#         4985
  C:2FD8H         LINE#         4987
  C:2FE7H         LINE#         4988
  C:2FFFH         LINE#         4989
  C:3017H         LINE#         4990
  C:3029H         LINE#         4995
  C:3060H         LINE#         4996
  C:3091H         LINE#         4999
  C:30CBH         LINE#         5000
  C:30FFH         LINE#         5003
  C:313CH         LINE#         5004
  C:315CH         LINE#         5006
  C:315FH         LINE#         5007
  C:315FH         LINE#         5008
  C:3162H         LINE#         5010
  C:3171H         LINE#         5011
  C:3189H         LINE#         5012
  C:31A1H         LINE#         5013
  C:31B3H         LINE#         5018
  C:31EAH         LINE#         5019
  C:321BH         LINE#         5022
  C:3255H         LINE#         5023
  C:3289H         LINE#         5026
  C:32C6H         LINE#         5027
  C:32FDH         LINE#         5029
  C:32FDH         LINE#         5030
  C:32FDH         LINE#         5031
  C:32FDH         LINE#         5034
BL51 BANKED LINKER/LOCATER V6.22.2.0                                                  08/13/2022  23:50:26  PAGE 82


  C:331BH         LINE#         5035
  C:331BH         LINE#         5036
  C:331BH         LINE#         5038
  C:331BH         LINE#         5041
  C:331EH         LINE#         5043
  C:331FH         LINE#         5045
  C:331FH         LINE#         5046
  C:331FH         LINE#         5048
  C:3343H         LINE#         5049
  C:3343H         LINE#         5050
  C:3343H         LINE#         5051
  C:3363H         LINE#         5052
  C:3373H         LINE#         5053
  C:3375H         LINE#         5055
  C:3375H         LINE#         5056
  C:3395H         LINE#         5057
  C:33ACH         LINE#         5058
  C:33AFH         LINE#         5060
  C:33AFH         LINE#         5061
  C:33CFH         LINE#         5062
  C:33DFH         LINE#         5063
  C:33E1H         LINE#         5065
  C:33E1H         LINE#         5066
  C:3401H         LINE#         5067
  C:3415H         LINE#         5068
  C:3418H         LINE#         5070
  C:3418H         LINE#         5071
  C:3438H         LINE#         5072
  C:3445H         LINE#         5073
  C:3447H         LINE#         5075
  C:3447H         LINE#         5076
  C:3467H         LINE#         5077
  C:347BH         LINE#         5078
  C:347BH         LINE#         5079
  C:347BH         LINE#         5082
  C:347EH         LINE#         5086
  C:3484H         LINE#         5087
  C:3487H         LINE#         5088
  C:3487H         LINE#         5089
  C:3487H         LINE#         5090
  C:348AH         LINE#         5091
  C:348AH         LINE#         5092
  C:348DH         LINE#         5094
  C:348DH         LINE#         5095
  C:348DH         LINE#         5097
  C:34AEH         LINE#         5098
  C:34AEH         LINE#         5099
  C:34AEH         LINE#         5100
  C:34C6H         LINE#         5101
  C:34D6H         LINE#         5102
  C:34D8H         LINE#         5104
  C:34D8H         LINE#         5105
  C:34F0H         LINE#         5106
  C:3507H         LINE#         5107
  C:350AH         LINE#         5109
  C:350AH         LINE#         5110
  C:3522H         LINE#         5111
BL51 BANKED LINKER/LOCATER V6.22.2.0                                                  08/13/2022  23:50:26  PAGE 83


  C:3532H         LINE#         5112
  C:3534H         LINE#         5114
  C:3534H         LINE#         5115
  C:354CH         LINE#         5116
  C:3560H         LINE#         5117
  C:3563H         LINE#         5119
  C:3563H         LINE#         5120
  C:357BH         LINE#         5121
  C:3588H         LINE#         5122
  C:358AH         LINE#         5124
  C:358AH         LINE#         5125
  C:35A2H         LINE#         5126
  C:35B6H         LINE#         5127
  C:35B6H         LINE#         5128
  C:35B6H         LINE#         5131
  C:35B9H         LINE#         5135
  C:35BFH         LINE#         5136
  C:35C2H         LINE#         5137
  C:35C5H         LINE#         5138
  C:35C5H         LINE#         5139
  C:35C8H         LINE#         5141
  C:35C8H         LINE#         5142
  C:35C8H         LINE#         5144
  C:35E9H         LINE#         5145
  C:35E9H         LINE#         5146
  C:35E9H         LINE#         5147
  C:35FAH         LINE#         5148
  C:360AH         LINE#         5149
  C:360CH         LINE#         5151
  C:360CH         LINE#         5152
  C:361DH         LINE#         5153
  C:3634H         LINE#         5154
  C:3637H         LINE#         5156
  C:3637H         LINE#         5157
  C:3648H         LINE#         5158
  C:3655H         LINE#         5159
  C:3657H         LINE#         5161
  C:3657H         LINE#         5162
  C:3668H         LINE#         5163
  C:367CH         LINE#         5164
  C:367FH         LINE#         5166
  C:367FH         LINE#         5167
  C:3690H         LINE#         5168
  C:369DH         LINE#         5169
  C:369FH         LINE#         5171
  C:369FH         LINE#         5172
  C:36B0H         LINE#         5173
  C:36C4H         LINE#         5174
  C:36C4H         LINE#         5175
  C:36C4H         LINE#         5178
  C:36C7H         LINE#         5182
  C:36CDH         LINE#         5183
  C:36D3H         LINE#         5184
  C:36D6H         LINE#         5185
  C:36D6H         LINE#         5186
  C:36D9H         LINE#         5188
  C:36D9H         LINE#         5189
BL51 BANKED LINKER/LOCATER V6.22.2.0                                                  08/13/2022  23:50:26  PAGE 84


  C:36D9H         LINE#         5191
  C:36F7H         LINE#         5192
  C:36F7H         LINE#         5193
  C:36F7H         LINE#         5194
  C:3703H         LINE#         5195
  C:3713H         LINE#         5196
  C:3715H         LINE#         5198
  C:3715H         LINE#         5199
  C:3721H         LINE#         5200
  C:3738H         LINE#         5201
  C:373BH         LINE#         5203
  C:373BH         LINE#         5204
  C:3747H         LINE#         5205
  C:3754H         LINE#         5206
  C:3756H         LINE#         5208
  C:3756H         LINE#         5209
  C:3762H         LINE#         5210
  C:3776H         LINE#         5211
  C:3779H         LINE#         5213
  C:3779H         LINE#         5214
  C:3785H         LINE#         5215
  C:3792H         LINE#         5216
  C:3794H         LINE#         5218
  C:3794H         LINE#         5219
  C:37A0H         LINE#         5220
  C:37B4H         LINE#         5221
  C:37B4H         LINE#         5222
  C:37B4H         LINE#         5225
  C:37B7H         LINE#         5229
  C:37BAH         LINE#         5230
  C:37BDH         LINE#         5231
  C:37C5H         LINE#         5232
  C:37C5H         LINE#         5233
  C:37C5H         LINE#         5235
  C:37C5H         LINE#         5236
  -------         ENDPROC       TASK_ONTIME_SET_3_48
  -------         PROC          TASK_OFFTIME_SET_3_49
  C:0026H         LINE#         5238
  C:0026H         LINE#         5239
  C:0026H         LINE#         5241
  C:002EH         LINE#         5244
  C:0031H         LINE#         5245
  C:0058H         LINE#         5246
  C:0058H         LINE#         5247
  C:0058H         LINE#         5248
  C:0058H         LINE#         5251
  C:0058H         LINE#         5252
  C:0058H         LINE#         5253
  C:0058H         LINE#         5254
  C:0058H         LINE#         5259
  C:0083H         LINE#         5260
  C:00A5H         LINE#         5263
  C:00D3H         LINE#         5264
  C:00FBH         LINE#         5267
  C:012EH         LINE#         5268
  C:0148H         LINE#         5269
  C:014BH         LINE#         5270
BL51 BANKED LINKER/LOCATER V6.22.2.0                                                  08/13/2022  23:50:26  PAGE 85


  C:014BH         LINE#         5271
  C:014EH         LINE#         5273
  C:015DH         LINE#         5274
  C:0175H         LINE#         5275
  C:018DH         LINE#         5276
  C:019FH         LINE#         5281
  C:01D6H         LINE#         5282
  C:0207H         LINE#         5285
  C:0241H         LINE#         5286
  C:0275H         LINE#         5289
  C:02B2H         LINE#         5290
  C:02D2H         LINE#         5292
  C:02D5H         LINE#         5293
  C:02D5H         LINE#         5294
  C:02D8H         LINE#         5296
  C:02E7H         LINE#         5297
  C:02FFH         LINE#         5298
  C:0317H         LINE#         5299
  C:0329H         LINE#         5304
  C:0360H         LINE#         5305
  C:0391H         LINE#         5308
  C:03CBH         LINE#         5309
  C:03FFH         LINE#         5312
  C:043CH         LINE#         5313
  C:045CH         LINE#         5315
  C:045FH         LINE#         5316
  C:045FH         LINE#         5317
  C:0462H         LINE#         5319
  C:0471H         LINE#         5320
  C:0489H         LINE#         5321
  C:04A1H         LINE#         5322
  C:04B3H         LINE#         5327
  C:04EAH         LINE#         5328
  C:051BH         LINE#         5331
  C:0555H         LINE#         5332
  C:0589H         LINE#         5335
  C:05C6H         LINE#         5336
  C:05E6H         LINE#         5338
  C:05E9H         LINE#         5339
  C:05E9H         LINE#         5340
  C:05ECH         LINE#         5342
  C:05FBH         LINE#         5343
  C:0613H         LINE#         5344
  C:062BH         LINE#         5345
  C:063DH         LINE#         5350
  C:0674H         LINE#         5351
  C:06A5H         LINE#         5354
  C:06DFH         LINE#         5355
  C:0713H         LINE#         5358
  C:0750H         LINE#         5359
  C:0770H         LINE#         5361
  C:0773H         LINE#         5362
  C:0773H         LINE#         5363
  C:0776H         LINE#         5365
  C:0785H         LINE#         5366
  C:079DH         LINE#         5367
  C:07B5H         LINE#         5368
BL51 BANKED LINKER/LOCATER V6.22.2.0                                                  08/13/2022  23:50:26  PAGE 86


  C:07C7H         LINE#         5373
  C:07FEH         LINE#         5374
  C:082FH         LINE#         5377
  C:0869H         LINE#         5378
  C:089DH         LINE#         5381
  C:08DAH         LINE#         5382
  C:0911H         LINE#         5384
  C:0911H         LINE#         5385
  C:0911H         LINE#         5386
  C:0911H         LINE#         5389
  C:092FH         LINE#         5390
  C:092FH         LINE#         5391
  C:092FH         LINE#         5393
  C:092FH         LINE#         5396
  C:0932H         LINE#         5398
  C:0935H         LINE#         5400
  C:0935H         LINE#         5401
  C:0935H         LINE#         5403
  C:0959H         LINE#         5404
  C:0959H         LINE#         5405
  C:0959H         LINE#         5406
  C:0979H         LINE#         5407
  C:0989H         LINE#         5408
  C:098BH         LINE#         5410
  C:098BH         LINE#         5411
  C:09ABH         LINE#         5412
  C:09C2H         LINE#         5413
  C:09C5H         LINE#         5415
  C:09C5H         LINE#         5416
  C:09E5H         LINE#         5417
  C:09F5H         LINE#         5418
  C:09F7H         LINE#         5420
  C:09F7H         LINE#         5421
  C:0A17H         LINE#         5422
  C:0A2BH         LINE#         5423
  C:0A2EH         LINE#         5425
  C:0A2EH         LINE#         5426
  C:0A4EH         LINE#         5427
  C:0A5BH         LINE#         5428
  C:0A5DH         LINE#         5430
  C:0A5DH         LINE#         5431
  C:0A7DH         LINE#         5432
  C:0A91H         LINE#         5433
  C:0A91H         LINE#         5434
  C:0A91H         LINE#         5437
  C:0A94H         LINE#         5441
  C:0A9AH         LINE#         5442
  C:0A9DH         LINE#         5443
  C:0A9DH         LINE#         5444
  C:0A9DH         LINE#         5445
  C:0AA0H         LINE#         5446
  C:0AA0H         LINE#         5447
  C:0AA3H         LINE#         5449
  C:0AA3H         LINE#         5450
  C:0AA3H         LINE#         5452
  C:0AC4H         LINE#         5453
  C:0AC4H         LINE#         5454
BL51 BANKED LINKER/LOCATER V6.22.2.0                                                  08/13/2022  23:50:26  PAGE 87


  C:0AC4H         LINE#         5455
  C:0ADCH         LINE#         5456
  C:0AECH         LINE#         5457
  C:0AEEH         LINE#         5459
  C:0AEEH         LINE#         5460
  C:0B06H         LINE#         5461
  C:0B1DH         LINE#         5462
  C:0B20H         LINE#         5464
  C:0B20H         LINE#         5465
  C:0B38H         LINE#         5466
  C:0B48H         LINE#         5467
  C:0B4AH         LINE#         5469
  C:0B4AH         LINE#         5470
  C:0B62H         LINE#         5471
  C:0B76H         LINE#         5472
  C:0B79H         LINE#         5474
  C:0B79H         LINE#         5475
  C:0B91H         LINE#         5476
  C:0B9EH         LINE#         5477
  C:0BA0H         LINE#         5479
  C:0BA0H         LINE#         5480
  C:0BB8H         LINE#         5481
  C:0BCCH         LINE#         5482
  C:0BCCH         LINE#         5483
  C:0BCCH         LINE#         5486
  C:0BCFH         LINE#         5490
  C:0BD5H         LINE#         5491
  C:0BD8H         LINE#         5492
  C:0BDBH         LINE#         5493
  C:0BDBH         LINE#         5494
  C:0BDEH         LINE#         5496
  C:0BDEH         LINE#         5497
  C:0BDEH         LINE#         5499
  C:0BFFH         LINE#         5500
  C:0BFFH         LINE#         5501
  C:0BFFH         LINE#         5502
  C:0C10H         LINE#         5503
  C:0C20H         LINE#         5504
  C:0C22H         LINE#         5506
  C:0C22H         LINE#         5507
  C:0C33H         LINE#         5508
  C:0C4AH         LINE#         5509
  C:0C4DH         LINE#         5511
  C:0C4DH         LINE#         5512
  C:0C5EH         LINE#         5513
  C:0C6BH         LINE#         5514
  C:0C6DH         LINE#         5516
  C:0C6DH         LINE#         5517
  C:0C7EH         LINE#         5518
  C:0C92H         LINE#         5519
  C:0C95H         LINE#         5521
  C:0C95H         LINE#         5522
  C:0CA6H         LINE#         5523
  C:0CB3H         LINE#         5524
  C:0CB5H         LINE#         5526
  C:0CB5H         LINE#         5527
  C:0CC6H         LINE#         5528
BL51 BANKED LINKER/LOCATER V6.22.2.0                                                  08/13/2022  23:50:26  PAGE 88


  C:0CDAH         LINE#         5529
  C:0CDAH         LINE#         5530
  C:0CDAH         LINE#         5533
  C:0CDDH         LINE#         5537
  C:0CE3H         LINE#         5538
  C:0CE3H         LINE#         5539
  C:0CE6H         LINE#         5540
  C:0CE6H         LINE#         5541
  C:0CE9H         LINE#         5543
  C:0CE9H         LINE#         5544
  C:0CE9H         LINE#         5546
  C:0D01H         LINE#         5547
  C:0D01H         LINE#         5548
  C:0D01H         LINE#         5549
  C:0D04H         LINE#         5550
  C:0D11H         LINE#         5551
  C:0D13H         LINE#         5553
  C:0D13H         LINE#         5554
  C:0D16H         LINE#         5555
  C:0D2AH         LINE#         5556
  C:0D2DH         LINE#         5558
  C:0D2DH         LINE#         5559
  C:0D30H         LINE#         5560
  C:0D3DH         LINE#         5561
  C:0D3FH         LINE#         5563
  C:0D3FH         LINE#         5564
  C:0D42H         LINE#         5565
  C:0D56H         LINE#         5566
  C:0D59H         LINE#         5568
  C:0D59H         LINE#         5569
  C:0D5CH         LINE#         5570
  C:0D69H         LINE#         5571
  C:0D6BH         LINE#         5573
  C:0D6BH         LINE#         5574
  C:0D6EH         LINE#         5575
  C:0D82H         LINE#         5576
  C:0D82H         LINE#         5577
  C:0D82H         LINE#         5580
  C:0D85H         LINE#         5584
  C:0D88H         LINE#         5585
  C:0D8BH         LINE#         5586
  C:0D93H         LINE#         5587
  C:0D93H         LINE#         5588
  C:0D93H         LINE#         5590
  C:0D93H         LINE#         5593
  C:0D9BH         LINE#         5596
  C:0D9EH         LINE#         5597
  C:0DC5H         LINE#         5598
  C:0DC5H         LINE#         5599
  C:0DC5H         LINE#         5600
  C:0DC5H         LINE#         5603
  C:0DC5H         LINE#         5604
  C:0DC5H         LINE#         5605
  C:0DC5H         LINE#         5606
  C:0DC5H         LINE#         5611
  C:0DF0H         LINE#         5612
  C:0E12H         LINE#         5615
BL51 BANKED LINKER/LOCATER V6.22.2.0                                                  08/13/2022  23:50:26  PAGE 89


  C:0E40H         LINE#         5616
  C:0E68H         LINE#         5619
  C:0E9CH         LINE#         5620
  C:0EB6H         LINE#         5621
  C:0EB9H         LINE#         5622
  C:0EB9H         LINE#         5623
  C:0EBCH         LINE#         5625
  C:0ECBH         LINE#         5626
  C:0EE3H         LINE#         5627
  C:0EFBH         LINE#         5628
  C:0F0DH         LINE#         5633
  C:0F44H         LINE#         5634
  C:0F75H         LINE#         5637
  C:0FAFH         LINE#         5638
  C:0FE3H         LINE#         5641
  C:1020H         LINE#         5642
  C:1040H         LINE#         5644
  C:1043H         LINE#         5645
  C:1043H         LINE#         5646
  C:1046H         LINE#         5648
  C:1055H         LINE#         5649
  C:106DH         LINE#         5650
  C:1085H         LINE#         5651
  C:1097H         LINE#         5656
  C:10CEH         LINE#         5657
  C:10FFH         LINE#         5660
  C:1139H         LINE#         5661
  C:116DH         LINE#         5664
  C:11AAH         LINE#         5665
  C:11CAH         LINE#         5667
  C:11CDH         LINE#         5668
  C:11CDH         LINE#         5669
  C:11D0H         LINE#         5671
  C:11DFH         LINE#         5672
  C:11F7H         LINE#         5673
  C:120FH         LINE#         5674
  C:1221H         LINE#         5679
  C:1258H         LINE#         5680
  C:1289H         LINE#         5683
  C:12C3H         LINE#         5684
  C:12F7H         LINE#         5687
  C:1334H         LINE#         5688
  C:1354H         LINE#         5690
  C:1357H         LINE#         5691
  C:1357H         LINE#         5692
  C:135AH         LINE#         5694
  C:1369H         LINE#         5695
  C:1381H         LINE#         5696
  C:1399H         LINE#         5697
  C:13ABH         LINE#         5702
  C:13E2H         LINE#         5703
  C:1413H         LINE#         5706
  C:144DH         LINE#         5707
  C:1481H         LINE#         5710
  C:14BEH         LINE#         5711
  C:14DEH         LINE#         5713
  C:14E1H         LINE#         5714
BL51 BANKED LINKER/LOCATER V6.22.2.0                                                  08/13/2022  23:50:26  PAGE 90


  C:14E1H         LINE#         5715
  C:14E4H         LINE#         5717
  C:14F3H         LINE#         5718
  C:150BH         LINE#         5719
  C:1523H         LINE#         5720
  C:1535H         LINE#         5725
  C:156CH         LINE#         5726
  C:159DH         LINE#         5729
  C:15D7H         LINE#         5730
  C:160BH         LINE#         5733
  C:1648H         LINE#         5734
  C:167FH         LINE#         5736
  C:167FH         LINE#         5737
  C:167FH         LINE#         5738
  C:167FH         LINE#         5741
  C:169DH         LINE#         5742
  C:169DH         LINE#         5743
  C:169DH         LINE#         5745
  C:169DH         LINE#         5748
  C:16A0H         LINE#         5750
  C:16A1H         LINE#         5752
  C:16A1H         LINE#         5753
  C:16A1H         LINE#         5755
  C:16C5H         LINE#         5756
  C:16C5H         LINE#         5757
  C:16C5H         LINE#         5758
  C:16E5H         LINE#         5759
  C:16F5H         LINE#         5760
  C:16F7H         LINE#         5762
  C:16F7H         LINE#         5763
  C:1717H         LINE#         5764
  C:172EH         LINE#         5765
  C:1731H         LINE#         5767
  C:1731H         LINE#         5768
  C:1751H         LINE#         5769
  C:1761H         LINE#         5770
  C:1763H         LINE#         5772
  C:1763H         LINE#         5773
  C:1783H         LINE#         5774
  C:1797H         LINE#         5775
  C:179AH         LINE#         5777
  C:179AH         LINE#         5778
  C:17BAH         LINE#         5779
  C:17C7H         LINE#         5780
  C:17C9H         LINE#         5782
  C:17C9H         LINE#         5783
  C:17E9H         LINE#         5784
  C:17FDH         LINE#         5785
  C:17FDH         LINE#         5786
  C:17FDH         LINE#         5789
  C:1800H         LINE#         5793
  C:1806H         LINE#         5794
  C:1809H         LINE#         5795
  C:1809H         LINE#         5796
  C:1809H         LINE#         5797
  C:180CH         LINE#         5798
  C:180CH         LINE#         5799
BL51 BANKED LINKER/LOCATER V6.22.2.0                                                  08/13/2022  23:50:26  PAGE 91


  C:180FH         LINE#         5801
  C:180FH         LINE#         5802
  C:180FH         LINE#         5804
  C:1830H         LINE#         5805
  C:1830H         LINE#         5806
  C:1830H         LINE#         5807
  C:1848H         LINE#         5808
  C:1858H         LINE#         5809
  C:185AH         LINE#         5811
  C:185AH         LINE#         5812
  C:1872H         LINE#         5813
  C:1889H         LINE#         5814
  C:188CH         LINE#         5816
  C:188CH         LINE#         5817
  C:18A4H         LINE#         5818
  C:18B4H         LINE#         5819
  C:18B6H         LINE#         5821
  C:18B6H         LINE#         5822
  C:18CEH         LINE#         5823
  C:18E2H         LINE#         5824
  C:18E5H         LINE#         5826
  C:18E5H         LINE#         5827
  C:18FDH         LINE#         5828
  C:190AH         LINE#         5829
  C:190CH         LINE#         5831
  C:190CH         LINE#         5832
  C:1924H         LINE#         5833
  C:1938H         LINE#         5834
  C:1938H         LINE#         5835
  C:1938H         LINE#         5838
  C:193BH         LINE#         5842
  C:1941H         LINE#         5843
  C:1944H         LINE#         5844
  C:1947H         LINE#         5845
  C:1947H         LINE#         5846
  C:194AH         LINE#         5848
  C:194AH         LINE#         5849
  C:194AH         LINE#         5851
  C:196BH         LINE#         5852
  C:196BH         LINE#         5853
  C:196BH         LINE#         5854
  C:197CH         LINE#         5855
  C:198CH         LINE#         5856
  C:198EH         LINE#         5858
  C:198EH         LINE#         5859
  C:199FH         LINE#         5860
  C:19B6H         LINE#         5861
  C:19B9H         LINE#         5863
  C:19B9H         LINE#         5864
  C:19CAH         LINE#         5865
  C:19D7H         LINE#         5866
  C:19D9H         LINE#         5868
  C:19D9H         LINE#         5869
  C:19EAH         LINE#         5870
  C:19FEH         LINE#         5871
  C:1A01H         LINE#         5873
  C:1A01H         LINE#         5874
BL51 BANKED LINKER/LOCATER V6.22.2.0                                                  08/13/2022  23:50:26  PAGE 92


  C:1A12H         LINE#         5875
  C:1A1FH         LINE#         5876
  C:1A21H         LINE#         5878
  C:1A21H         LINE#         5879
  C:1A32H         LINE#         5880
  C:1A46H         LINE#         5881
  C:1A46H         LINE#         5882
  C:1A46H         LINE#         5885
  C:1A49H         LINE#         5889
  C:1A4FH         LINE#         5890
  C:1A4FH         LINE#         5891
  C:1A52H         LINE#         5892
  C:1A52H         LINE#         5893
  C:1A55H         LINE#         5895
  C:1A55H         LINE#         5896
  C:1A55H         LINE#         5898
  C:1A6DH         LINE#         5899
  C:1A6DH         LINE#         5900
  C:1A6DH         LINE#         5901
  C:1A70H         LINE#         5902
  C:1A7DH         LINE#         5903
  C:1A7FH         LINE#         5905
  C:1A7FH         LINE#         5906
  C:1A82H         LINE#         5907
  C:1A96H         LINE#         5908
  C:1A99H         LINE#         5910
  C:1A99H         LINE#         5911
  C:1A9CH         LINE#         5912
  C:1AA9H         LINE#         5913
  C:1AABH         LINE#         5915
  C:1AABH         LINE#         5916
  C:1AAEH         LINE#         5917
  C:1AC2H         LINE#         5918
  C:1AC5H         LINE#         5920
  C:1AC5H         LINE#         5921
  C:1AC8H         LINE#         5922
  C:1AD5H         LINE#         5923
  C:1AD7H         LINE#         5925
  C:1AD7H         LINE#         5926
  C:1ADAH         LINE#         5927
  C:1AEEH         LINE#         5928
  C:1AEEH         LINE#         5929
  C:1AEEH         LINE#         5932
  C:1AF1H         LINE#         5936
  C:1AF4H         LINE#         5937
  C:1AF7H         LINE#         5938
  C:1AFFH         LINE#         5939
  C:1AFFH         LINE#         5940
  C:1AFFH         LINE#         5942
  C:1AFFH         LINE#         5945
  -------         ENDPROC       TASK_OFFTIME_SET_3_49
  -------         PROC          RETURN_3_50
  C:C076H         LINE#         5947
  C:C076H         LINE#         5948
  C:C076H         LINE#         5949
  C:C079H         LINE#         5950
  C:C079H         LINE#         5951
BL51 BANKED LINKER/LOCATER V6.22.2.0                                                  08/13/2022  23:50:26  PAGE 93


  C:C07CH         LINE#         5952
  -------         ENDPROC       RETURN_3_50
  -------         ENDMOD        LCD1602_MENU

  -------         MODULE        LCD1602_SHOW
  C:0000H         SYMBOL        _ICE_DUMMY_
  D:0080H         PUBLIC        P0
  D:0090H         PUBLIC        P1
  D:00A0H         PUBLIC        P2
  D:00B0H         PUBLIC        P3
  D:00C0H         PUBLIC        P4
  D:00C8H         PUBLIC        P5
  D:001EH         PUBLIC        LCD1602_Show_State
  D:00A8H         PUBLIC        IE
  D:00B8H         PUBLIC        IP
  D:00D8H         PUBLIC        CCON
  D:0098H         PUBLIC        SCON
  D:0088H         PUBLIC        TCON
  C:BED2H         PUBLIC        LCD1602_Show_Update
  D:00D0H         PUBLIC        PSW
  -------         PROC          LCD1602_SHOW_UPDATE
  C:BED2H         LINE#         8
  C:BED2H         LINE#         9
  C:BED2H         LINE#         10
  C:BEDEH         LINE#         11
  C:BEDEH         LINE#         12
  C:BEDEH         LINE#         13
  C:BEE1H         LINE#         14
  C:BEE1H         LINE#         15
  C:BEE1H         LINE#         16
  C:BEE4H         LINE#         17
  C:BEE4H         LINE#         18
  C:BEE4H         LINE#         19
  C:BEE7H         LINE#         20
  C:BEE7H         LINE#         21
  C:BEE7H         LINE#         22
  -------         ENDPROC       LCD1602_SHOW_UPDATE
  -------         ENDMOD        LCD1602_SHOW

  -------         MODULE        ESP8266
  C:0000H         SYMBOL        _ICE_DUMMY_
  D:0080H         PUBLIC        P0
  D:0090H         PUBLIC        P1
  D:00A0H         PUBLIC        P2
  D:00B0H         PUBLIC        P3
  D:00C0H         PUBLIC        P4
  D:00C8H         PUBLIC        P5
  X:0000H         PUBLIC        ESP8266_Return_Value
  B:00A8H.7       PUBLIC        EA
  D:0046H         PUBLIC        Month
  X:0001H         PUBLIC        RESET_COUNTER
  D:00A8H         PUBLIC        IE
  D:0047H         PUBLIC        Year
  X:0002H         PUBLIC        APIPTable
  D:00B8H         PUBLIC        IP
  B:0098H.0       PUBLIC        RI
  B:0098H.1       PUBLIC        TI
BL51 BANKED LINKER/LOCATER V6.22.2.0                                                  08/13/2022  23:50:26  PAGE 94


  D:0049H         PUBLIC        Day
  C:55CFH         PUBLIC        Esp8266_STA_AP_Mode
  D:00D8H         PUBLIC        CCON
  C:BD8EH         PUBLIC        _arryClear
  X:0012H         PUBLIC        UART_0x7F_Count
  D:0099H         PUBLIC        SBUF
  D:0098H         PUBLIC        SCON
  D:0088H         PUBLIC        TCON
  B:00B0H.2       PUBLIC        P32
  X:0013H         PUBLIC        rcvTable
  X:00DBH         PUBLIC        STA_MODE_Table
  D:00C7H         PUBLIC        IAP_CONTR
  C:C02FH         PUBLIC        _Esp8266_Send_String
  X:0171H         PUBLIC        TcpServerPort
  X:0175H         PUBLIC        ATCIPSERVER
  C:4DBEH         PUBLIC        Uart_Interrupt
  X:018BH         PUBLIC        AP_MODE_Table
  X:0221H         PUBLIC        DateTable
  X:022CH         PUBLIC        STAIPTable
  X:023CH         PUBLIC        STA_MODE_COUNTER
  X:023DH         PUBLIC        GET_TIME_COUNTER
  X:023EH         PUBLIC        URL_COUNTER
  D:00D0H         PUBLIC        PSW
  X:023FH         PUBLIC        TimeTable
  C:B5A9H         SYMBOL        Com00F6
  C:B5A9H         SYMBOL        L?0247
  C:B5A9H         SYMBOL        L?0248
  C:B5B0H         SYMBOL        L?0249
  C:B5B0H         SYMBOL        L?0250
  C:B5B3H         SYMBOL        L?0251
  C:B5BCH         SYMBOL        L?0255
  C:B5C9H         SYMBOL        L?0256
  C:B5D5H         SYMBOL        L?0257
  C:B5D5H         SYMBOL        L?0258
  C:B5DCH         SYMBOL        L?0259
  C:B5DCH         SYMBOL        L?0260
  C:B5DEH         SYMBOL        L?0261
  C:B5DFH         SYMBOL        L?0262
  C:B5E6H         SYMBOL        L?0264
  C:B5EAH         SYMBOL        L?0265
  C:B5F5H         SYMBOL        L?0266
  C:B5F5H         SYMBOL        L?0267
  C:B5FCH         SYMBOL        L?0268
  C:B600H         SYMBOL        L?0269
  C:B60CH         SYMBOL        L?0274
  C:B60CH         SYMBOL        L?0275
  C:B613H         SYMBOL        L?0276
  C:B613H         SYMBOL        L?0277
  C:B61AH         SYMBOL        L?0278
  C:B61AH         SYMBOL        L?0279
  C:B621H         SYMBOL        L?0281
  C:B62EH         SYMBOL        L?0282
  C:B63BH         SYMBOL        L?0285
  C:B63BH         SYMBOL        L?0286
  C:B642H         SYMBOL        L?0287
  -------         PROC          COM00F6
  -------         ENDPROC       COM00F6
BL51 BANKED LINKER/LOCATER V6.22.2.0                                                  08/13/2022  23:50:26  PAGE 95


  -------         PROC          _ESP8266_SEND_STRING
  D:0001H         SYMBOL        str
  C:C02FH         LINE#         70
  C:C02FH         LINE#         71
  C:C032H         LINE#         72
  -------         ENDPROC       _ESP8266_SEND_STRING
  C:5B07H         SYMBOL        L?0200
  C:5B18H         SYMBOL        L?0201
  C:5B29H         SYMBOL        L?0202
  C:5B3AH         SYMBOL        L?0203
  C:5B49H         SYMBOL        L?0204
  C:5B56H         SYMBOL        L?0205
  C:5B63H         SYMBOL        L?0206
  C:5B70H         SYMBOL        L?0207
  C:5B7DH         SYMBOL        L?0208
  C:5B8AH         SYMBOL        L?0209
  C:5B97H         SYMBOL        L?0210
  C:5BA4H         SYMBOL        L?0211
  C:5BB1H         SYMBOL        L?0212
  C:5BBFH         SYMBOL        L?0213
  C:5BCCH         SYMBOL        L?0214
  C:5BD9H         SYMBOL        L?0215
  C:5BE7H         SYMBOL        L?0216
  C:5BF4H         SYMBOL        L?0217
  C:5C00H         SYMBOL        L?0218
  C:5C0DH         SYMBOL        L?0219
  C:5C1BH         SYMBOL        L?0220
  C:5C28H         SYMBOL        L?0221
  C:5C36H         SYMBOL        L?0222
  C:5C40H         SYMBOL        L?0223
  C:5C4DH         SYMBOL        L?0224
  C:5C5AH         SYMBOL        L?0225
  C:5C68H         SYMBOL        L?0226
  C:5C72H         SYMBOL        L?0227
  C:5C7FH         SYMBOL        L?0228
  C:5C8CH         SYMBOL        L?0229
  C:5C96H         SYMBOL        L?0230
  C:5CA3H         SYMBOL        L?0231
  C:5CB0H         SYMBOL        L?0232
  C:5CBAH         SYMBOL        L?0233
  C:5CC7H         SYMBOL        L?0234
  C:5CD4H         SYMBOL        L?0235
  C:5CDEH         SYMBOL        L?0236
  C:5CEBH         SYMBOL        L?0237
  C:5CF5H         SYMBOL        L?0238
  C:5D02H         SYMBOL        L?0239
  C:5D0FH         SYMBOL        L?0240
  C:5D19H         SYMBOL        L?0241
  C:5D23H         SYMBOL        L?0242
  C:5D30H         SYMBOL        L?0243
  C:5D3DH         SYMBOL        L?0244
  C:5D47H         SYMBOL        L?0245
  C:5D51H         SYMBOL        L?0252
  C:5D5BH         SYMBOL        L?0253
  C:5D65H         SYMBOL        L?0254
  C:5D6FH         SYMBOL        L?0263
  C:5D79H         SYMBOL        L?0270
BL51 BANKED LINKER/LOCATER V6.22.2.0                                                  08/13/2022  23:50:26  PAGE 96


  C:5D83H         SYMBOL        L?0271
  C:5D8DH         SYMBOL        L?0273
  C:5D95H         SYMBOL        L?0280
  C:5DA3H         SYMBOL        L?0283
  C:5DABH         SYMBOL        L?0284
  C:5DB3H         SYMBOL        L?0288
  -------         PROC          ESP8266_STA_AP_MODE
  -------         DO            
  C:55D4H         SYMBOL        END
  C:5726H         SYMBOL        STA_MODE_FAIL
  C:577BH         SYMBOL        GET_TIME
  C:5916H         SYMBOL        GET_TIME_FAIL
  -------         ENDDO         
  C:55CFH         LINE#         84
  C:55CFH         LINE#         87
  C:55D2H         LINE#         88
  C:55D9H         LINE#         91
  C:55DEH         LINE#         92
  C:55E9H         LINE#         93
  C:55E9H         LINE#         95
  C:55F3H         LINE#         96
  C:55FCH         LINE#         97
  C:5602H         LINE#         98
  C:560CH         LINE#         99
  C:5616H         LINE#         100
  C:5620H         LINE#         101
  C:562AH         LINE#         102
  C:5634H         LINE#         103
  C:563EH         LINE#         104
  C:5641H         LINE#         105
  C:5644H         LINE#         106
  C:5649H         LINE#         107
  C:5650H         LINE#         108
  C:5652H         LINE#         109
  C:5657H         LINE#         110
  C:565EH         LINE#         111
  C:5661H         LINE#         112
  C:5669H         LINE#         113
  C:5669H         LINE#         114
  C:5669H         LINE#         118
  C:566EH         LINE#         119
  C:5673H         LINE#         120
  C:5673H         LINE#         121
  C:567CH         LINE#         122
  C:5683H         LINE#         123
  C:568AH         LINE#         124
  C:5691H         LINE#         125
  C:5698H         LINE#         126
  C:569FH         LINE#         127
  C:56A6H         LINE#         128
  C:56A8H         LINE#         129
  C:56B2H         LINE#         132
  C:56B9H         LINE#         133
  C:56BEH         LINE#         136
  C:56C3H         LINE#         137
  C:56CBH         LINE#         138
  C:56CBH         LINE#         139
BL51 BANKED LINKER/LOCATER V6.22.2.0                                                  08/13/2022  23:50:26  PAGE 97


  C:56D9H         LINE#         140
  C:56E2H         LINE#         141
  C:56E9H         LINE#         142
  C:56F0H         LINE#         143
  C:56F7H         LINE#         144
  C:56FEH         LINE#         145
  C:5705H         LINE#         146
  C:570CH         LINE#         147
  C:5713H         LINE#         148
  C:5716H         LINE#         149
  C:5719H         LINE#         150
  C:571EH         LINE#         151
  C:5724H         LINE#         152
  C:5726H         LINE#         153
  C:5726H         LINE#         154
  C:572FH         LINE#         155
  C:572FH         LINE#         159
  C:5734H         LINE#         160
  C:5739H         LINE#         161
  C:5739H         LINE#         162
  C:5742H         LINE#         163
  C:5744H         LINE#         164
  C:574FH         LINE#         165
  C:5751H         LINE#         166
  C:575CH         LINE#         167
  C:575EH         LINE#         168
  C:5769H         LINE#         169
  C:576EH         LINE#         170
  C:5771H         LINE#         171
  C:577BH         LINE#         175
  C:577BH         LINE#         176
  C:5786H         LINE#         177
  C:578DH         LINE#         178
  C:5794H         LINE#         181
  C:5799H         LINE#         182
  C:57A1H         LINE#         183
  C:57A1H         LINE#         184
  C:57AFH         LINE#         185
  C:57B8H         LINE#         186
  C:57BFH         LINE#         187
  C:57C6H         LINE#         188
  C:57CDH         LINE#         189
  C:57D4H         LINE#         190
  C:57DBH         LINE#         191
  C:57E2H         LINE#         192
  C:57E9H         LINE#         193
  C:57ECH         LINE#         195
  C:57F1H         LINE#         196
  C:57F5H         LINE#         197
  C:57F7H         LINE#         198
  C:57FEH         LINE#         199
  C:57FEH         LINE#         201
  C:5801H         LINE#         204
  C:5806H         LINE#         205
  C:580EH         LINE#         206
  C:580EH         LINE#         207
  C:5817H         LINE#         208
BL51 BANKED LINKER/LOCATER V6.22.2.0                                                  08/13/2022  23:50:26  PAGE 98


  C:581EH         LINE#         209
  C:5825H         LINE#         210
  C:582CH         LINE#         211
  C:5833H         LINE#         212
  C:583AH         LINE#         213
  C:583CH         LINE#         214
  C:5841H         LINE#         215
  C:5845H         LINE#         216
  C:5847H         LINE#         217
  C:584EH         LINE#         218
  C:584EH         LINE#         219
  C:5851H         LINE#         220
  C:5854H         LINE#         224
  C:5857H         LINE#         225
  C:585EH         LINE#         228
  C:5863H         LINE#         229
  C:586CH         LINE#         230
  C:5874H         LINE#         231
  C:5874H         LINE#         232
  C:587FH         LINE#         233
  C:5885H         LINE#         234
  C:588CH         LINE#         235
  C:5893H         LINE#         236
  C:589AH         LINE#         237
  C:58A1H         LINE#         238
  C:58A8H         LINE#         239
  C:58AAH         LINE#         240
  C:58AFH         LINE#         241
  C:58B3H         LINE#         242
  C:58B5H         LINE#         243
  C:58BCH         LINE#         244
  C:58BCH         LINE#         246
  C:58BFH         LINE#         250
  C:58C7H         LINE#         251
  C:58C7H         LINE#         252
  C:58D2H         LINE#         253
  C:58D9H         LINE#         254
  C:58E0H         LINE#         255
  C:58E7H         LINE#         256
  C:58EEH         LINE#         257
  C:58F5H         LINE#         258
  C:58FCH         LINE#         259
  C:5903H         LINE#         260
  C:5906H         LINE#         261
  C:5909H         LINE#         262
  C:590EH         LINE#         263
  C:5914H         LINE#         264
  C:5916H         LINE#         265
  C:5916H         LINE#         266
  C:591FH         LINE#         267
  C:591FH         LINE#         268
  C:5922H         LINE#         269
  C:5925H         LINE#         273
  C:592AH         LINE#         274
  C:5937H         LINE#         275
  C:5944H         LINE#         276
  C:5947H         LINE#         279
BL51 BANKED LINKER/LOCATER V6.22.2.0                                                  08/13/2022  23:50:26  PAGE 99


  C:594CH         LINE#         280
  C:594FH         LINE#         283
  C:5954H         LINE#         284
  C:5959H         LINE#         285
  C:5959H         LINE#         286
  C:5962H         LINE#         287
  C:5964H         LINE#         288
  C:596FH         LINE#         289
  C:5971H         LINE#         290
  C:597CH         LINE#         291
  C:597EH         LINE#         292
  C:5989H         LINE#         293
  C:598EH         LINE#         294
  C:5991H         LINE#         295
  C:5998H         LINE#         298
  C:599DH         LINE#         299
  C:59A5H         LINE#         300
  C:59A5H         LINE#         301
  C:59AEH         LINE#         302
  C:59B4H         LINE#         303
  C:59BBH         LINE#         304
  C:59C2H         LINE#         305
  C:59C9H         LINE#         306
  C:59D0H         LINE#         307
  C:59D7H         LINE#         308
  C:59DEH         LINE#         309
  C:59E1H         LINE#         310
  C:59E6H         LINE#         311
  C:59EAH         LINE#         312
  C:59ECH         LINE#         313
  C:59F7H         LINE#         314
  C:59F7H         LINE#         315
  C:59FDH         LINE#         318
  C:5A00H         LINE#         319
  C:5A03H         LINE#         322
  C:5A08H         LINE#         323
  C:5A10H         LINE#         324
  C:5A10H         LINE#         325
  C:5A19H         LINE#         326
  C:5A1FH         LINE#         327
  C:5A26H         LINE#         328
  C:5A2DH         LINE#         329
  C:5A34H         LINE#         330
  C:5A3BH         LINE#         331
  C:5A42H         LINE#         332
  C:5A4CH         LINE#         333
  C:5A56H         LINE#         334
  C:5A59H         LINE#         335
  C:5A5EH         LINE#         336
  C:5A62H         LINE#         337
  C:5A64H         LINE#         338
  C:5A6BH         LINE#         339
  C:5A6BH         LINE#         340
  C:5A6EH         LINE#         343
  C:5A73H         LINE#         344
  C:5A7CH         LINE#         345
  C:5A81H         LINE#         346
BL51 BANKED LINKER/LOCATER V6.22.2.0                                                  08/13/2022  23:50:26  PAGE 100


  C:5A81H         LINE#         347
  C:5A87H         LINE#         348
  C:5A8EH         LINE#         349
  C:5A95H         LINE#         350
  C:5A9FH         LINE#         351
  C:5AA6H         LINE#         352
  C:5AADH         LINE#         353
  C:5AB7H         LINE#         354
  C:5AC1H         LINE#         355
  C:5ACBH         LINE#         356
  C:5ACEH         LINE#         357
  C:5AD5H         LINE#         360
  C:5AD5H         LINE#         361
  C:5AD8H         LINE#         362
  C:5ADFH         LINE#         363
  C:5AE6H         LINE#         364
  C:5AE9H         LINE#         367
  C:5AE9H         LINE#         368
  C:5AECH         LINE#         369
  C:5AF9H         LINE#         370
  C:5B00H         LINE#         371
  C:5B06H         LINE#         373
  C:5B06H         LINE#         375
  -------         ENDPROC       ESP8266_STA_AP_MODE
  -------         PROC          _ARRYCLEAR
  D:002DH         SYMBOL        dataArry
  -------         DO            
  D:0007H         SYMBOL        i
  -------         ENDDO         
  C:BD8EH         LINE#         384
  C:BD94H         LINE#         386
  C:BDA0H         LINE#         387
  C:BDB0H         LINE#         388
  C:BDB3H         LINE#         389
  -------         ENDPROC       _ARRYCLEAR
  C:55BDH         SYMBOL        L?0272
  -------         PROC          UART_INTERRUPT
  -------         DO            
  D:0041H         SYMBOL        ip
  D:0042H         SYMBOL        i
  D:0043H         SYMBOL        t
  D:0044H         SYMBOL        sta
  D:0045H         SYMBOL        ap
  -------         ENDDO         
  C:4DBEH         LINE#         401
  C:4DDBH         LINE#         409
  C:4DDEH         LINE#         411
  C:4DE0H         LINE#         412
  C:4DE3H         LINE#         414
  C:4DE3H         LINE#         416
  C:4DE5H         LINE#         419
  C:4DECH         LINE#         421
  C:4DF2H         LINE#         423
  C:4DF7H         LINE#         424
  C:4DF7H         LINE#         425
  C:4DF8H         LINE#         426
  C:4DFBH         LINE#         427
BL51 BANKED LINKER/LOCATER V6.22.2.0                                                  08/13/2022  23:50:26  PAGE 101


  C:4DFBH         LINE#         428
  C:4DFDH         LINE#         429
  C:4E02H         LINE#         430
  C:4E02H         LINE#         432
  C:4E10H         LINE#         433
  C:4E18H         LINE#         434
  C:4E1AH         LINE#         438
  C:4E26H         LINE#         442
  C:4E28H         LINE#         445
  C:4E34H         LINE#         446
  C:4E34H         LINE#         447
  C:4E37H         LINE#         450
  C:4E5BH         LINE#         451
  C:4E5BH         LINE#         452
  C:4E61H         LINE#         453
  C:4E64H         LINE#         456
  C:4E77H         LINE#         457
  C:4E7DH         LINE#         458
  C:4E80H         LINE#         467
  C:4E93H         LINE#         470
  C:4E9AH         LINE#         471
  C:4EA1H         LINE#         472
  C:4EB2H         LINE#         473
  C:4EB6H         LINE#         475
  C:4EB6H         LINE#         476
  C:4EB8H         LINE#         480
  C:4ECBH         LINE#         483
  C:4ED2H         LINE#         484
  C:4ED9H         LINE#         485
  C:4EEAH         LINE#         486
  C:4EEEH         LINE#         488
  C:4EF4H         LINE#         489
  C:4EF7H         LINE#         494
  C:4F25H         LINE#         496
  C:4F25H         LINE#         499
  C:4F2CH         LINE#         500
  C:4F32H         LINE#         501
  C:4F36H         LINE#         504
  C:4F41H         LINE#         505
  C:4F46H         LINE#         506
  C:4F46H         LINE#         507
  C:4F46H         LINE#         508
  C:4F4BH         LINE#         509
  C:4F4FH         LINE#         511
  C:4F4FH         LINE#         512
  C:4F4FH         LINE#         513
  C:4F4FH         LINE#         515
  C:4F4FH         LINE#         516
  C:4F4FH         LINE#         517
  C:4F52H         LINE#         522
  C:4F83H         LINE#         524
  C:4F83H         LINE#         527
  C:4F8AH         LINE#         528
  C:4F90H         LINE#         529
  C:4F94H         LINE#         532
  C:4F9CH         LINE#         533
  C:4FA1H         LINE#         534
BL51 BANKED LINKER/LOCATER V6.22.2.0                                                  08/13/2022  23:50:26  PAGE 102


  C:4FA1H         LINE#         535
  C:4FA1H         LINE#         536
  C:4FA6H         LINE#         537
  C:4FAAH         LINE#         539
  C:4FAAH         LINE#         540
  C:4FAAH         LINE#         541
  C:4FAAH         LINE#         543
  C:4FAAH         LINE#         544
  C:4FAAH         LINE#         545
  C:4FADH         LINE#         551
  C:4FD8H         LINE#         553
  C:4FD8H         LINE#         556
  C:4FE1H         LINE#         557
  C:4FE7H         LINE#         558
  C:4FEBH         LINE#         561
  C:4FF6H         LINE#         562
  C:4FFFH         LINE#         563
  C:4FFFH         LINE#         564
  C:4FFFH         LINE#         565
  C:500DH         LINE#         566
  C:5011H         LINE#         568
  C:5011H         LINE#         569
  C:5011H         LINE#         570
  C:5011H         LINE#         572
  C:5011H         LINE#         573
  C:5011H         LINE#         574
  C:5014H         LINE#         579
  C:5054H         LINE#         581
  C:5054H         LINE#         584
  C:505EH         LINE#         585
  C:5064H         LINE#         586
  C:5068H         LINE#         589
  C:5073H         LINE#         590
  C:507CH         LINE#         591
  C:507CH         LINE#         592
  C:507CH         LINE#         593
  C:508AH         LINE#         594
  C:508EH         LINE#         596
  C:5090H         LINE#         597
  C:5093H         LINE#         598
  C:5095H         LINE#         600
  C:5095H         LINE#         601
  C:5095H         LINE#         602
  C:5095H         LINE#         604
  C:5098H         LINE#         608
  C:50A4H         LINE#         609
  C:50A4H         LINE#         611
  C:50A4H         LINE#         612
  C:50A7H         LINE#         613
  C:50A7H         LINE#         618
  C:510FH         LINE#         621
  C:510FH         LINE#         628
  C:5117H         LINE#         629
  C:511DH         LINE#         631
  C:5130H         LINE#         633
  C:5141H         LINE#         634
  C:515EH         LINE#         636
BL51 BANKED LINKER/LOCATER V6.22.2.0                                                  08/13/2022  23:50:26  PAGE 103


  C:5177H         LINE#         637
  C:5186H         LINE#         639
  C:519FH         LINE#         640
  C:51AEH         LINE#         642
  C:51C7H         LINE#         643
  C:51D6H         LINE#         645
  C:51EEH         LINE#         646
  C:51FDH         LINE#         648
  C:5215H         LINE#         649
  C:5224H         LINE#         650
  C:5224H         LINE#         652
  C:5238H         LINE#         653
  C:5249H         LINE#         654
  C:5263H         LINE#         655
  C:5274H         LINE#         656
  C:5274H         LINE#         658
  C:5279H         LINE#         659
  C:5279H         LINE#         661
  C:5279H         LINE#         662
  C:527CH         LINE#         664
  C:527CH         LINE#         668
  C:52B9H         LINE#         671
  C:52B9H         LINE#         673
  C:52BBH         LINE#         674
  C:52BBH         LINE#         675
  C:52BBH         LINE#         678
  C:52FBH         LINE#         681
  C:52FBH         LINE#         683
  C:52FDH         LINE#         684
  C:52FDH         LINE#         685
  C:52FDH         LINE#         688
  C:533DH         LINE#         691
  C:533DH         LINE#         693
  C:533FH         LINE#         694
  C:533FH         LINE#         695
  C:533FH         LINE#         698
  C:537FH         LINE#         701
  C:537FH         LINE#         703
  C:5381H         LINE#         704
  C:5381H         LINE#         705
  C:5381H         LINE#         708
  C:53C1H         LINE#         711
  C:53C1H         LINE#         713
  C:53C3H         LINE#         714
  C:53C3H         LINE#         715
  C:53C3H         LINE#         718
  C:5403H         LINE#         721
  C:5403H         LINE#         723
  C:5405H         LINE#         724
  C:5405H         LINE#         725
  C:5405H         LINE#         728
  C:5446H         LINE#         731
  C:5446H         LINE#         733
  C:5448H         LINE#         734
  C:5448H         LINE#         735
  C:5448H         LINE#         738
  C:5489H         LINE#         741
BL51 BANKED LINKER/LOCATER V6.22.2.0                                                  08/13/2022  23:50:26  PAGE 104


  C:5489H         LINE#         743
  C:548BH         LINE#         744
  C:548BH         LINE#         745
  C:548BH         LINE#         748
  C:54CCH         LINE#         751
  C:54CCH         LINE#         753
  C:54CEH         LINE#         754
  C:54CEH         LINE#         755
  C:54CEH         LINE#         758
  C:550FH         LINE#         761
  C:550FH         LINE#         763
  C:5511H         LINE#         764
  C:5511H         LINE#         765
  C:5511H         LINE#         768
  C:5552H         LINE#         771
  C:5552H         LINE#         773
  C:5554H         LINE#         774
  C:5554H         LINE#         775
  C:5554H         LINE#         778
  C:5594H         LINE#         781
  C:5594H         LINE#         783
  C:5596H         LINE#         784
  C:559FH         LINE#         785
  C:55A2H         LINE#         786
  C:55A2H         LINE#         789
  C:55A2H         LINE#         791
  C:55A2H         LINE#         792
  -------         ENDPROC       UART_INTERRUPT
  -------         ENDMOD        ESP8266

  -------         MODULE        UART
  C:0000H         SYMBOL        _ICE_DUMMY_
  D:0080H         PUBLIC        P0
  D:0090H         PUBLIC        P1
  D:00A0H         PUBLIC        P2
  D:00B0H         PUBLIC        P3
  D:00C0H         PUBLIC        P4
  D:00C8H         PUBLIC        P5
  D:00A8H         PUBLIC        IE
  B:00A8H.4       PUBLIC        ES
  D:00B8H         PUBLIC        IP
  B:0098H.1       PUBLIC        TI
  D:00D8H         PUBLIC        CCON
  D:0099H         PUBLIC        SBUF
  D:0087H         PUBLIC        PCON
  D:0098H         PUBLIC        SCON
  C:BF14H         PUBLIC        UartInit
  D:0088H         PUBLIC        TCON
  D:008EH         PUBLIC        AUXR
  C:BF9BH         PUBLIC        _Uart_Send_String
  D:009CH         PUBLIC        BRT
  C:BFE0H         PUBLIC        _Uart_Send_Char
  D:00D0H         PUBLIC        PSW
  -------         PROC          UARTINIT
  C:BF14H         LINE#         29
  C:BF14H         LINE#         30
  C:BF14H         LINE#         31
BL51 BANKED LINKER/LOCATER V6.22.2.0                                                  08/13/2022  23:50:26  PAGE 105


  C:BF17H         LINE#         32
  C:BF1AH         LINE#         33
  C:BF1DH         LINE#         34
  C:BF20H         LINE#         35
  C:BF23H         LINE#         36
  C:BF26H         LINE#         38
  C:BF28H         LINE#         39
  -------         ENDPROC       UARTINIT
  -------         PROC          _UART_SEND_CHAR
  D:0007H         SYMBOL        uartData
  C:BFE0H         LINE#         48
  C:BFE0H         LINE#         49
  C:BFE2H         LINE#         50
  C:BFE4H         LINE#         51
  C:BFE6H         LINE#         52
  C:BFE9H         LINE#         53
  C:BFEBH         LINE#         54
  C:BFEDH         LINE#         55
  -------         ENDPROC       _UART_SEND_CHAR
  -------         PROC          _UART_SEND_STRING
  D:0001H         SYMBOL        str
  C:BF9BH         LINE#         64
  C:BF9BH         LINE#         65
  C:BFA1H         LINE#         66
  C:BFA4H         LINE#         67
  C:BFABH         LINE#         68
  C:BFADH         LINE#         69
  -------         ENDPROC       _UART_SEND_STRING
  -------         ENDMOD        UART

  -------         MODULE        EEPROM_APPLICATION
  C:0000H         SYMBOL        _ICE_DUMMY_
  D:0080H         PUBLIC        P0
  D:0090H         PUBLIC        P1
  D:00A0H         PUBLIC        P2
  D:00B0H         PUBLIC        P3
  D:00C0H         PUBLIC        P4
  D:00C8H         PUBLIC        P5
  C:B7B4H         PUBLIC        AP_MODE_Table_Default
  D:00A8H         PUBLIC        IE
  C:37C6H         PUBLIC        EEPROM_Read_Sector_1
  X:03D6H         PUBLIC        EepromSta
  D:00B8H         PUBLIC        IP
  X:03D8H         PUBLIC        EepromAp
  D:00D8H         PUBLIC        CCON
  D:0098H         PUBLIC        SCON
  D:0088H         PUBLIC        TCON
  C:9934H         PUBLIC        SYSTEM_DATA_RESET
  C:B782H         PUBLIC        STA_MODE_Table_Default
  C:5DBAH         PUBLIC        EEPROM_Program_Sector_1
  C:B76BH         PUBLIC        ATCIPSERVER_Default
  D:00D0H         PUBLIC        PSW
  C:9D08H         SYMBOL        Com001F
  C:9D08H         SYMBOL        L?0032
  C:9D08H         SYMBOL        L?0033
  C:9D0BH         SYMBOL        L?0034
  C:9D17H         SYMBOL        L?0035
BL51 BANKED LINKER/LOCATER V6.22.2.0                                                  08/13/2022  23:50:26  PAGE 106


  C:9D17H         SYMBOL        L?0036
  C:9D1AH         SYMBOL        L?0037
  C:9D29H         SYMBOL        L?0038
  C:9D29H         SYMBOL        L?0039
  C:9D2CH         SYMBOL        L?0040
  C:9D3BH         SYMBOL        L?0041
  C:9D3BH         SYMBOL        L?0042
  C:9D3EH         SYMBOL        L?0043
  C:9D4DH         SYMBOL        L?0044
  C:9D4DH         SYMBOL        L?0045
  C:9D50H         SYMBOL        L?0046
  C:9D5FH         SYMBOL        L?0047
  C:9D5FH         SYMBOL        L?0048
  C:9D62H         SYMBOL        L?0049
  C:9D71H         SYMBOL        L?0052
  C:9D71H         SYMBOL        L?0053
  C:9D74H         SYMBOL        L?0054
  C:9D83H         SYMBOL        L?0059
  C:9D83H         SYMBOL        L?0060
  C:9D86H         SYMBOL        L?0061
  C:9D95H         SYMBOL        L?0066
  C:9D95H         SYMBOL        L?0067
  C:9D98H         SYMBOL        L?0068
  C:9DA7H         SYMBOL        L?0074
  C:9DA7H         SYMBOL        L?0075
  C:9DAAH         SYMBOL        L?0076
  C:9DB9H         SYMBOL        L?0084
  C:9DB9H         SYMBOL        L?0085
  C:9DBCH         SYMBOL        L?0086
  C:9DCBH         SYMBOL        L?0095
  C:9DCBH         SYMBOL        L?0096
  C:9DCEH         SYMBOL        L?0097
  C:9DDDH         SYMBOL        L?0106
  C:9DDDH         SYMBOL        L?0107
  C:9DE0H         SYMBOL        L?0108
  C:9DEFH         SYMBOL        L?0118
  C:9DEFH         SYMBOL        L?0119
  C:9DF2H         SYMBOL        L?0120
  C:9E01H         SYMBOL        L?0123
  C:9E01H         SYMBOL        L?0124
  C:9E09H         SYMBOL        L?0125
  C:9E09H         SYMBOL        L?0126
  C:9E11H         SYMBOL        L?0127
  C:9E11H         SYMBOL        L?0128
  C:9E19H         SYMBOL        L?0135
  C:9E21H         SYMBOL        L?0136
  C:9E21H         SYMBOL        L?0137
  C:9E29H         SYMBOL        L?0138
  C:9E31H         SYMBOL        L?0142
  C:9E39H         SYMBOL        L?0143
  C:9E41H         SYMBOL        L?0146
  C:9E49H         SYMBOL        L?0147
  C:9E4CH         SYMBOL        L?0148
  C:9E5BH         SYMBOL        L?0150
  C:9E63H         SYMBOL        L?0153
  C:9E6BH         SYMBOL        L?0156
  C:9E73H         SYMBOL        L?0157
BL51 BANKED LINKER/LOCATER V6.22.2.0                                                  08/13/2022  23:50:26  PAGE 107


  C:9E73H         SYMBOL        L?0158
  C:9E7BH         SYMBOL        L?0161
  C:9E83H         SYMBOL        L?0164
  C:9E8BH         SYMBOL        L?0184
  C:9E93H         SYMBOL        L?0185
  C:9E9EH         SYMBOL        L?0186
  C:9EA8H         SYMBOL        L?0187
  C:9EA8H         SYMBOL        L?0188
  -------         PROC          COM001F
  -------         ENDPROC       COM001F
  C:6357H         SYMBOL        L?0073
  C:6362H         SYMBOL        L?0078
  C:636DH         SYMBOL        L?0080
  C:6378H         SYMBOL        L?0082
  C:6383H         SYMBOL        L?0088
  C:638EH         SYMBOL        L?0090
  C:6399H         SYMBOL        L?0092
  C:63A4H         SYMBOL        L?0094
  C:63AFH         SYMBOL        L?0099
  C:63BAH         SYMBOL        L?0101
  C:63C3H         SYMBOL        L?0103
  C:63CCH         SYMBOL        L?0105
  C:63D5H         SYMBOL        L?0110
  C:63DEH         SYMBOL        L?0112
  C:63E7H         SYMBOL        L?0114
  C:63F0H         SYMBOL        L?0115
  C:63F8H         SYMBOL        L?0117
  C:6400H         SYMBOL        L?0122
  C:6408H         SYMBOL        L?0129
  C:6410H         SYMBOL        L?0131
  C:6418H         SYMBOL        L?0134
  C:6420H         SYMBOL        L?0140
  C:6428H         SYMBOL        L?0145
  C:6430H         SYMBOL        L?0152
  C:6438H         SYMBOL        L?0160
  C:6440H         SYMBOL        L?0166
  C:6449H         SYMBOL        L?0167
  C:6452H         SYMBOL        L?0168
  C:645BH         SYMBOL        L?0169
  C:6464H         SYMBOL        L?0170
  C:646DH         SYMBOL        L?0171
  C:6476H         SYMBOL        L?0172
  C:647FH         SYMBOL        L?0173
  C:6488H         SYMBOL        L?0174
  C:6491H         SYMBOL        L?0175
  C:649AH         SYMBOL        L?0176
  C:64A3H         SYMBOL        L?0177
  C:64ACH         SYMBOL        L?0178
  C:64B5H         SYMBOL        L?0179
  C:64BEH         SYMBOL        L?0180
  C:64C7H         SYMBOL        L?0181
  C:64D0H         SYMBOL        L?0182
  C:64D9H         SYMBOL        L?0183
  -------         PROC          EEPROM_PROGRAM_SECTOR_1
  C:5DBAH         LINE#         193
  C:5DBAH         LINE#         194
  C:5DBAH         LINE#         195
BL51 BANKED LINKER/LOCATER V6.22.2.0                                                  08/13/2022  23:50:26  PAGE 108


  C:5DC0H         LINE#         198
  C:5DCCH         LINE#         199
  C:5DD4H         LINE#         201
  C:5DE1H         LINE#         202
  C:5DE9H         LINE#         204
  C:5DF6H         LINE#         205
  C:5E03H         LINE#         206
  C:5E10H         LINE#         207
  C:5E18H         LINE#         209
  C:5E23H         LINE#         210
  C:5E2EH         LINE#         211
  C:5E3EH         LINE#         212
  C:5E46H         LINE#         214
  C:5E51H         LINE#         215
  C:5E5CH         LINE#         216
  C:5E6CH         LINE#         217
  C:5E74H         LINE#         220
  C:5E81H         LINE#         221
  C:5E89H         LINE#         223
  C:5E96H         LINE#         224
  C:5E9EH         LINE#         226
  C:5EA9H         LINE#         227
  C:5EB4H         LINE#         228
  C:5EC4H         LINE#         229
  C:5ECCH         LINE#         231
  C:5ED7H         LINE#         232
  C:5EE2H         LINE#         233
  C:5EF2H         LINE#         234
  C:5EFAH         LINE#         236
  C:5F05H         LINE#         237
  C:5F10H         LINE#         238
  C:5F20H         LINE#         239
  C:5F28H         LINE#         242
  C:5F35H         LINE#         243
  C:5F3DH         LINE#         245
  C:5F4AH         LINE#         246
  C:5F52H         LINE#         248
  C:5F5DH         LINE#         249
  C:5F68H         LINE#         250
  C:5F78H         LINE#         251
  C:5F80H         LINE#         253
  C:5F8BH         LINE#         254
  C:5F96H         LINE#         255
  C:5FA6H         LINE#         256
  C:5FAEH         LINE#         258
  C:5FB9H         LINE#         259
  C:5FC4H         LINE#         260
  C:5FD4H         LINE#         261
  C:5FDCH         LINE#         264
  C:5FE9H         LINE#         265
  C:5FF1H         LINE#         267
  C:5FFEH         LINE#         268
  C:6006H         LINE#         270
  C:6011H         LINE#         271
  C:601CH         LINE#         272
  C:602CH         LINE#         273
  C:6034H         LINE#         275
BL51 BANKED LINKER/LOCATER V6.22.2.0                                                  08/13/2022  23:50:26  PAGE 109


  C:603FH         LINE#         276
  C:604AH         LINE#         277
  C:605AH         LINE#         278
  C:6062H         LINE#         280
  C:606DH         LINE#         281
  C:6078H         LINE#         282
  C:6088H         LINE#         283
  C:6090H         LINE#         286
  C:609DH         LINE#         287
  C:60A5H         LINE#         289
  C:60B2H         LINE#         290
  C:60BAH         LINE#         292
  C:60C5H         LINE#         293
  C:60D0H         LINE#         294
  C:60E0H         LINE#         295
  C:60E8H         LINE#         297
  C:60F3H         LINE#         298
  C:60FEH         LINE#         299
  C:610EH         LINE#         300
  C:6116H         LINE#         302
  C:6121H         LINE#         303
  C:612CH         LINE#         304
  C:613CH         LINE#         305
  C:6144H         LINE#         308
  C:6151H         LINE#         309
  C:6159H         LINE#         311
  C:6166H         LINE#         312
  C:616EH         LINE#         314
  C:6179H         LINE#         315
  C:6184H         LINE#         316
  C:6194H         LINE#         317
  C:619CH         LINE#         319
  C:61A7H         LINE#         320
  C:61B2H         LINE#         321
  C:61C2H         LINE#         322
  C:61CAH         LINE#         324
  C:61D5H         LINE#         325
  C:61E0H         LINE#         326
  C:61F0H         LINE#         327
  C:61F8H         LINE#         330
  C:6201H         LINE#         333
  C:620BH         LINE#         334
  C:6214H         LINE#         337
  C:621EH         LINE#         338
  C:6227H         LINE#         341
  C:622FH         LINE#         342
  C:6237H         LINE#         344
  C:623FH         LINE#         345
  C:6247H         LINE#         346
  C:624FH         LINE#         347
  C:6257H         LINE#         348
  C:625FH         LINE#         349
  C:6267H         LINE#         351
  C:626FH         LINE#         352
  C:6277H         LINE#         353
  C:627FH         LINE#         354
  C:6287H         LINE#         355
BL51 BANKED LINKER/LOCATER V6.22.2.0                                                  08/13/2022  23:50:26  PAGE 110


  C:628FH         LINE#         357
  C:6297H         LINE#         358
  C:629FH         LINE#         359
  C:62A7H         LINE#         362
  C:62B7H         LINE#         363
  C:62C2H         LINE#         365
  C:62CAH         LINE#         366
  C:62D2H         LINE#         367
  C:62DAH         LINE#         368
  C:62E2H         LINE#         369
  C:62EAH         LINE#         373
  C:62EDH         LINE#         374
  C:6303H         LINE#         375
  C:6320H         LINE#         379
  C:6323H         LINE#         380
  C:6339H         LINE#         381
  C:6356H         LINE#         383
  -------         ENDPROC       EEPROM_PROGRAM_SECTOR_1
  C:432AH         SYMBOL        L?0050
  C:4334H         SYMBOL        L?0051
  C:433EH         SYMBOL        L?0055
  C:4348H         SYMBOL        L?0056
  C:4352H         SYMBOL        L?0057
  C:435CH         SYMBOL        L?0058
  C:4366H         SYMBOL        L?0062
  C:4370H         SYMBOL        L?0063
  C:437AH         SYMBOL        L?0064
  C:4384H         SYMBOL        L?0065
  C:438EH         SYMBOL        L?0069
  C:4398H         SYMBOL        L?0070
  C:43A2H         SYMBOL        L?0071
  C:43ACH         SYMBOL        L?0072
  C:43B6H         SYMBOL        L?0077
  C:43C0H         SYMBOL        L?0079
  C:43CAH         SYMBOL        L?0081
  C:43D4H         SYMBOL        L?0083
  C:43DEH         SYMBOL        L?0087
  C:43E8H         SYMBOL        L?0089
  C:43F2H         SYMBOL        L?0091
  C:43FCH         SYMBOL        L?0093
  C:4406H         SYMBOL        L?0098
  C:4410H         SYMBOL        L?0100
  C:441AH         SYMBOL        L?0102
  C:4424H         SYMBOL        L?0104
  C:442EH         SYMBOL        L?0109
  C:4438H         SYMBOL        L?0111
  C:4442H         SYMBOL        L?0113
  C:444CH         SYMBOL        L?0116
  C:4456H         SYMBOL        L?0121
  C:4460H         SYMBOL        L?0130
  C:446AH         SYMBOL        L?0132
  C:4474H         SYMBOL        L?0133
  C:447CH         SYMBOL        L?0139
  C:4484H         SYMBOL        L?0141
  C:448EH         SYMBOL        L?0144
  C:4496H         SYMBOL        L?0149
  C:44A0H         SYMBOL        L?0151
BL51 BANKED LINKER/LOCATER V6.22.2.0                                                  08/13/2022  23:50:26  PAGE 111


  C:44A8H         SYMBOL        L?0154
  C:44AFH         SYMBOL        L?0155
  C:44B6H         SYMBOL        L?0159
  C:44BEH         SYMBOL        L?0162
  C:44C5H         SYMBOL        L?0163
  C:44CCH         SYMBOL        L?0165
  -------         PROC          EEPROM_READ_SECTOR_1
  C:37C6H         LINE#         402
  C:37C6H         LINE#         403
  C:37C6H         LINE#         406
  C:37D0H         LINE#         407
  C:37DFH         LINE#         409
  C:37E7H         LINE#         410
  C:37F6H         LINE#         412
  C:3801H         LINE#         413
  C:3821H         LINE#         414
  C:3841H         LINE#         415
  C:3861H         LINE#         417
  C:386CH         LINE#         418
  C:3892H         LINE#         419
  C:38B8H         LINE#         420
  C:38DEH         LINE#         422
  C:38E9H         LINE#         423
  C:390CH         LINE#         424
  C:392FH         LINE#         425
  C:3952H         LINE#         428
  C:395AH         LINE#         429
  C:3969H         LINE#         431
  C:3971H         LINE#         432
  C:3980H         LINE#         434
  C:398BH         LINE#         435
  C:39AEH         LINE#         436
  C:39D1H         LINE#         437
  C:39F4H         LINE#         439
  C:39FFH         LINE#         440
  C:3A22H         LINE#         441
  C:3A45H         LINE#         442
  C:3A68H         LINE#         444
  C:3A73H         LINE#         445
  C:3A99H         LINE#         446
  C:3ABFH         LINE#         447
  C:3AE5H         LINE#         450
  C:3AEDH         LINE#         451
  C:3AFCH         LINE#         453
  C:3B07H         LINE#         454
  C:3B16H         LINE#         456
  C:3B21H         LINE#         457
  C:3B44H         LINE#         458
  C:3B67H         LINE#         459
  C:3B8AH         LINE#         461
  C:3B95H         LINE#         462
  C:3BB8H         LINE#         463
  C:3BDBH         LINE#         464
  C:3BFEH         LINE#         466
  C:3C09H         LINE#         467
  C:3C2CH         LINE#         468
  C:3C4FH         LINE#         469
BL51 BANKED LINKER/LOCATER V6.22.2.0                                                  08/13/2022  23:50:26  PAGE 112


  C:3C72H         LINE#         472
  C:3C7DH         LINE#         473
  C:3C8CH         LINE#         475
  C:3C97H         LINE#         476
  C:3CA6H         LINE#         478
  C:3CB1H         LINE#         479
  C:3CD7H         LINE#         480
  C:3CFDH         LINE#         481
  C:3D23H         LINE#         483
  C:3D2EH         LINE#         484
  C:3D51H         LINE#         485
  C:3D74H         LINE#         486
  C:3D97H         LINE#         488
  C:3DA2H         LINE#         489
  C:3DC5H         LINE#         490
  C:3DE8H         LINE#         491
  C:3E0BH         LINE#         494
  C:3E16H         LINE#         495
  C:3E25H         LINE#         497
  C:3E30H         LINE#         498
  C:3E3FH         LINE#         500
  C:3E4AH         LINE#         501
  C:3E6DH         LINE#         502
  C:3E90H         LINE#         503
  C:3EB3H         LINE#         505
  C:3EBEH         LINE#         506
  C:3EE4H         LINE#         507
  C:3F0AH         LINE#         508
  C:3F30H         LINE#         510
  C:3F3BH         LINE#         511
  C:3F5EH         LINE#         512
  C:3F81H         LINE#         513
  C:3FA4H         LINE#         516
  C:3FAFH         LINE#         517
  C:3FBEH         LINE#         519
  C:3FCDH         LINE#         520
  C:3FE0H         LINE#         522
  C:3FEBH         LINE#         523
  C:400EH         LINE#         524
  C:4031H         LINE#         525
  C:4054H         LINE#         527
  C:405FH         LINE#         528
  C:4082H         LINE#         529
  C:40A5H         LINE#         530
  C:40C8H         LINE#         532
  C:40D3H         LINE#         533
  C:40F9H         LINE#         534
  C:411FH         LINE#         535
  C:4145H         LINE#         538
  C:414EH         LINE#         541
  C:415AH         LINE#         542
  C:416AH         LINE#         545
  C:4176H         LINE#         546
  C:4186H         LINE#         549
  C:4192H         LINE#         550
  C:419EH         LINE#         552
  C:41AAH         LINE#         553
BL51 BANKED LINKER/LOCATER V6.22.2.0                                                  08/13/2022  23:50:26  PAGE 113


  C:41B6H         LINE#         554
  C:41C2H         LINE#         555
  C:41CEH         LINE#         556
  C:41DAH         LINE#         557
  C:41E6H         LINE#         559
  C:41F2H         LINE#         560
  C:41FEH         LINE#         561
  C:420AH         LINE#         562
  C:4216H         LINE#         563
  C:4222H         LINE#         565
  C:422EH         LINE#         566
  C:423AH         LINE#         567
  C:4246H         LINE#         570
  C:4254H         LINE#         571
  C:427DH         LINE#         573
  C:4289H         LINE#         574
  C:4295H         LINE#         575
  C:42A1H         LINE#         576
  C:42ADH         LINE#         577
  C:42B9H         LINE#         582
  C:42CCH         LINE#         583
  C:42E1H         LINE#         584
  C:42F1H         LINE#         588
  C:4304H         LINE#         589
  C:4319H         LINE#         590
  C:4329H         LINE#         592
  -------         ENDPROC       EEPROM_READ_SECTOR_1
  -------         PROC          SYSTEM_DATA_RESET
  -------         DO            
  D:001FH         SYMBOL        i
  -------         ENDDO         
  C:9934H         LINE#         612
  C:9934H         LINE#         613
  C:9934H         LINE#         617
  C:993BH         LINE#         618
  C:9941H         LINE#         619
  C:994BH         LINE#         620
  C:994DH         LINE#         625
  C:9957H         LINE#         626
  C:9961H         LINE#         629
  C:9968H         LINE#         630
  C:996EH         LINE#         631
  C:9978H         LINE#         632
  C:997AH         LINE#         637
  C:9984H         LINE#         638
  C:998EH         LINE#         642
  C:9995H         LINE#         643
  C:999BH         LINE#         644
  C:99A5H         LINE#         645
  C:99A7H         LINE#         650
  C:99B1H         LINE#         651
  C:99BBH         LINE#         655
  C:99C2H         LINE#         656
  C:99C8H         LINE#         657
  C:99D2H         LINE#         658
  C:99D4H         LINE#         663
  C:99DEH         LINE#         664
BL51 BANKED LINKER/LOCATER V6.22.2.0                                                  08/13/2022  23:50:26  PAGE 114


  C:99E8H         LINE#         667
  C:99EFH         LINE#         668
  C:99F5H         LINE#         669
  C:99FFH         LINE#         670
  C:9A01H         LINE#         675
  C:9A0BH         LINE#         676
  C:9A15H         LINE#         679
  C:9A1CH         LINE#         680
  C:9A22H         LINE#         681
  C:9A2CH         LINE#         682
  C:9A2EH         LINE#         687
  C:9A38H         LINE#         688
  C:9A42H         LINE#         694
  C:9A44H         LINE#         695
  C:9A46H         LINE#         697
  C:9A48H         LINE#         698
  C:9A4AH         LINE#         699
  C:9A4CH         LINE#         700
  C:9A4EH         LINE#         701
  C:9A50H         LINE#         702
  C:9A52H         LINE#         704
  C:9A54H         LINE#         705
  C:9A56H         LINE#         706
  C:9A58H         LINE#         707
  C:9A5AH         LINE#         708
  C:9A5CH         LINE#         710
  C:9A5EH         LINE#         711
  C:9A60H         LINE#         712
  C:9A62H         LINE#         718
  C:9A64H         LINE#         719
  C:9A66H         LINE#         721
  C:9A68H         LINE#         722
  C:9A6AH         LINE#         723
  C:9A6CH         LINE#         724
  C:9A6EH         LINE#         725
  C:9A70H         LINE#         726
  C:9A72H         LINE#         728
  C:9A74H         LINE#         729
  C:9A76H         LINE#         730
  C:9A78H         LINE#         731
  C:9A7AH         LINE#         732
  C:9A7CH         LINE#         734
  C:9A7EH         LINE#         735
  C:9A80H         LINE#         736
  C:9A82H         LINE#         739
  C:9A88H         LINE#         740
  C:9A8DH         LINE#         742
  C:9A92H         LINE#         743
  C:9A96H         LINE#         744
  C:9A9BH         LINE#         745
  C:9A9FH         LINE#         746
  C:9AA4H         LINE#         747
  C:9AA8H         LINE#         749
  C:9AADH         LINE#         750
  C:9AB1H         LINE#         751
  C:9AB6H         LINE#         752
  C:9ABAH         LINE#         753
BL51 BANKED LINKER/LOCATER V6.22.2.0                                                  08/13/2022  23:50:26  PAGE 115


  C:9ABFH         LINE#         755
  C:9AC3H         LINE#         756
  C:9AC7H         LINE#         757
  C:9ACBH         LINE#         760
  C:9AD9H         LINE#         761
  C:9AE9H         LINE#         762
  C:9AEEH         LINE#         765
  C:9AF8H         LINE#         768
  C:9AFBH         LINE#         769
  C:9B05H         LINE#         770
  C:9B13H         LINE#         771
  C:9B18H         LINE#         773
  C:9B26H         LINE#         774
  C:9B30H         LINE#         775
  C:9B3EH         LINE#         776
  C:9B43H         LINE#         781
  -------         ENDPROC       SYSTEM_DATA_RESET
  -------         ENDMOD        EEPROM_APPLICATION

  -------         MODULE        LCD1602
  C:0000H         SYMBOL        _ICE_DUMMY_
  D:0080H         PUBLIC        P0
  D:0090H         PUBLIC        P1
  D:00A0H         PUBLIC        P2
  D:00B0H         PUBLIC        P3
  D:00C0H         PUBLIC        P4
  D:00C8H         PUBLIC        P5
  D:00A8H         PUBLIC        IE
  B:00A0H.7       PUBLIC        EN
  D:00B8H         PUBLIC        IP
  C:B9ACH         PUBLIC        _Lcd1602_Custom_Char
  D:00D8H         PUBLIC        CCON
  B:00A0H.5       PUBLIC        RS
  C:BE76H         PUBLIC        Lcd1602_Busy_Check
  B:00A0H.6       PUBLIC        RW
  C:BEFEH         PUBLIC        _Lcd1602_Write_Data
  D:0098H         PUBLIC        SCON
  D:0088H         PUBLIC        TCON
  C:B8E3H         PUBLIC        _Lcd1602_Show_String
  C:BEE8H         PUBLIC        _Lcd1602_Write_Cmd
  C:BDB4H         PUBLIC        Lcd1602_Init
  D:00D0H         PUBLIC        PSW
  C:C051H         SYMBOL        Com001B
  C:C051H         SYMBOL        L?0028
  -------         PROC          COM001B
  -------         ENDPROC       COM001B
  -------         PROC          _LCD1602_CUSTOM_CHAR
  D:0031H         SYMBOL        row
  D:0032H         SYMBOL        col
  D:0033H         SYMBOL        pos
  D:0034H         SYMBOL        customValueTable
  -------         DO            
  D:0037H         SYMBOL        i
  -------         ENDDO         
  C:B9ACH         LINE#         13
  C:B9B2H         LINE#         14
  C:B9B5H         LINE#         15
BL51 BANKED LINKER/LOCATER V6.22.2.0                                                  08/13/2022  23:50:26  PAGE 116


  C:B9C2H         LINE#         16
  C:B9D0H         LINE#         17
  C:B9E3H         LINE#         18
  C:B9E7H         LINE#         19
  C:B9EDH         LINE#         20
  C:B9F1H         LINE#         21
  C:B9F1H         LINE#         22
  C:B9F3H         LINE#         23
  C:B9FBH         LINE#         24
  C:BA00H         LINE#         25
  C:BA00H         LINE#         26
  -------         ENDPROC       _LCD1602_CUSTOM_CHAR
  C:B942H         SYMBOL        L?0026
  -------         PROC          _LCD1602_SHOW_STRING
  D:0007H         SYMBOL        row
  D:0030H         SYMBOL        col
  D:0031H         SYMBOL        str
  -------         DO            
  D:0034H         SYMBOL        defaultValue
  -------         ENDDO         
  C:B8E3H         LINE#         33
  C:B8EBH         LINE#         34
  C:B8F4H         LINE#         35
  C:B8FCH         LINE#         36
  C:B8FCH         LINE#         37
  C:B904H         LINE#         38
  C:B909H         LINE#         39
  C:B909H         LINE#         40
  C:B90CH         LINE#         41
  C:B90EH         LINE#         42
  C:B90EH         LINE#         43
  C:B90EH         LINE#         44
  C:B916H         LINE#         45
  C:B91BH         LINE#         46
  C:B91BH         LINE#         47
  C:B91EH         LINE#         48
  C:B920H         LINE#         49
  C:B920H         LINE#         51
  C:B920H         LINE#         52
  C:B925H         LINE#         53
  C:B931H         LINE#         54
  C:B934H         LINE#         55
  C:B93FH         LINE#         56
  C:B941H         LINE#         57
  C:B941H         LINE#         58
  -------         ENDPROC       _LCD1602_SHOW_STRING
  -------         PROC          LCD1602_BUSY_CHECK
  -------         DO            
  D:0007H         SYMBOL        tmp
  -------         ENDDO         
  C:BE76H         LINE#         67
  C:BE76H         LINE#         69
  C:BE79H         LINE#         71
  C:BE79H         LINE#         72
  C:BE7BH         LINE#         73
  C:BE7DH         LINE#         74
  C:BE7FH         LINE#         75
BL51 BANKED LINKER/LOCATER V6.22.2.0                                                  08/13/2022  23:50:26  PAGE 117


  C:BE81H         LINE#         76
  C:BE82H         LINE#         77
  C:BE83H         LINE#         78
  C:BE85H         LINE#         79
  C:BE86H         LINE#         80
  C:BE88H         LINE#         81
  C:BE89H         LINE#         82
  C:BE8DH         LINE#         83
  -------         ENDPROC       LCD1602_BUSY_CHECK
  -------         PROC          LCD1602_INIT
  C:BDB4H         LINE#         90
  C:BDB4H         LINE#         91
  C:BDB7H         LINE#         92
  C:BDBCH         LINE#         93
  C:BDBFH         LINE#         94
  C:BDC4H         LINE#         95
  C:BDC9H         LINE#         96
  C:BDCEH         LINE#         97
  C:BDD3H         LINE#         98
  -------         ENDPROC       LCD1602_INIT
  -------         PROC          _LCD1602_WRITE_CMD
  D:0006H         SYMBOL        cmd
  C:BEE8H         LINE#         106
  C:BEEAH         LINE#         107
  C:BEEDH         LINE#         108
  C:BEEFH         LINE#         109
  C:BEF1H         LINE#         110
  C:BEF3H         LINE#         111
  C:BEF5H         LINE#         112
  C:BEF6H         LINE#         113
  C:BEF8H         LINE#         114
  C:BEF9H         LINE#         115
  C:BEFBH         LINE#         116
  C:BEFCH         LINE#         117
  C:BEFDH         LINE#         118
  -------         ENDPROC       _LCD1602_WRITE_CMD
  -------         PROC          _LCD1602_WRITE_DATA
  D:0006H         SYMBOL        Data
  C:BEFEH         LINE#         127
  C:BF00H         LINE#         128
  C:BF03H         LINE#         129
  C:BF05H         LINE#         130
  C:BF07H         LINE#         131
  C:BF09H         LINE#         132
  C:BF0BH         LINE#         133
  C:BF0CH         LINE#         134
  C:BF0EH         LINE#         135
  C:BF0FH         LINE#         136
  C:BF11H         LINE#         137
  C:BF12H         LINE#         138
  C:BF13H         LINE#         139
  -------         ENDPROC       _LCD1602_WRITE_DATA
  -------         ENDMOD        LCD1602

  -------         MODULE        RELAY
  C:0000H         SYMBOL        _ICE_DUMMY_
  D:0080H         PUBLIC        P0
BL51 BANKED LINKER/LOCATER V6.22.2.0                                                  08/13/2022  23:50:26  PAGE 118


  D:0090H         PUBLIC        P1
  D:00A0H         PUBLIC        P2
  D:00B0H         PUBLIC        P3
  C:7ABEH         PUBLIC        Task1_Output_Update
  D:00C0H         PUBLIC        P4
  C:7DBDH         PUBLIC        Task2_Output_Update
  D:00C8H         PUBLIC        P5
  C:80AFH         PUBLIC        Task3_Output_Update
  C:83A1H         PUBLIC        Task4_Output_Update
  C:8693H         PUBLIC        Task5_Output_Update
  C:8978H         PUBLIC        Task6_Output_Update
  B:0025H.0       PUBLIC        Pin20
  B:0025H.1       PUBLIC        Pin21
  B:0025H.2       PUBLIC        Pin12
  D:0020H         PUBLIC        Task_OverTime_Reset
  B:0025H.3       PUBLIC        Pin22
  B:0025H.4       PUBLIC        Pin13
  B:0025H.5       PUBLIC        Pin23
  B:0025H.6       PUBLIC        Pin14
  D:00A8H         PUBLIC        IE
  B:0025H.7       PUBLIC        Pin24
  B:0026H.0       PUBLIC        Pin15
  D:0021H         PUBLIC        Pin_Mode
  B:0026H.1       PUBLIC        Pin16
  B:0026H.2       PUBLIC        Pin35
  B:0026H.3       PUBLIC        Pin17
  B:0026H.4       PUBLIC        Pin36
  B:0026H.5       PUBLIC        Pin37
  B:0026H.6       PUBLIC        Pin10_Key
  B:0026H.7       PUBLIC        Pin20_Key
  B:0027H.0       PUBLIC        Pin11_Key
  B:0027H.1       PUBLIC        Pin21_Key
  B:0027H.2       PUBLIC        Pin12_Key
  B:0027H.3       PUBLIC        Pin22_Key
  B:0027H.4       PUBLIC        Pin13_Key
  B:0027H.5       PUBLIC        Pin23_Key
  B:0027H.6       PUBLIC        Pin14_Key
  D:00B8H         PUBLIC        IP
  B:0027H.7       PUBLIC        Pin24_Key
  B:0028H.0       PUBLIC        Pin15_Key
  B:0028H.1       PUBLIC        Pin16_Key
  B:0028H.2       PUBLIC        Pin35_Key
  B:0028H.3       PUBLIC        Pin17_Key
  B:0028H.4       PUBLIC        Pin36_Key
  B:0028H.5       PUBLIC        Pin37_Key
  D:00D8H         PUBLIC        CCON
  B:0023H.0       PUBLIC        Pin10_Trigger_Mode
  B:0024H.0       PUBLIC        Pin20_Trigger_Mode
  B:0023H.1       PUBLIC        Pin11_Trigger_Mode
  B:0024H.1       PUBLIC        Pin21_Trigger_Mode
  B:0023H.2       PUBLIC        Pin12_Trigger_Mode
  X:0323H         PUBLIC        Task1_Mode
  B:0024H.2       PUBLIC        Pin22_Trigger_Mode
  B:0023H.3       PUBLIC        Pin13_Trigger_Mode
  X:0324H         PUBLIC        Task2_Mode
  B:0024H.3       PUBLIC        Pin23_Trigger_Mode
  B:0023H.4       PUBLIC        Pin14_Trigger_Mode
BL51 BANKED LINKER/LOCATER V6.22.2.0                                                  08/13/2022  23:50:26  PAGE 119


  X:0325H         PUBLIC        Task3_Mode
  B:0024H.4       PUBLIC        Pin24_Trigger_Mode
  B:0023H.5       PUBLIC        Pin15_Trigger_Mode
  X:0326H         PUBLIC        Task4_Mode
  B:0023H.6       PUBLIC        Pin16_Trigger_Mode
  B:0090H.0       PUBLIC        P10
  X:0327H         PUBLIC        Task5_Mode
  B:0024H.5       PUBLIC        Pin35_Trigger_Mode
  B:0023H.7       PUBLIC        Pin17_Trigger_Mode
  B:00A0H.0       PUBLIC        P20
  B:0090H.1       PUBLIC        P11
  X:0328H         PUBLIC        Task6_Mode
  B:0024H.6       PUBLIC        Pin36_Trigger_Mode
  B:00A0H.1       PUBLIC        P21
  B:0090H.2       PUBLIC        P12
  B:0024H.7       PUBLIC        Pin37_Trigger_Mode
  D:0098H         PUBLIC        SCON
  B:00A0H.2       PUBLIC        P22
  B:0090H.3       PUBLIC        P13
  D:0088H         PUBLIC        TCON
  B:00A0H.3       PUBLIC        P23
  B:0090H.4       PUBLIC        P14
  B:00A0H.4       PUBLIC        P24
  B:0090H.5       PUBLIC        P15
  B:0090H.6       PUBLIC        P16
  B:00B0H.5       PUBLIC        P35
  B:0090H.7       PUBLIC        P17
  B:00B0H.6       PUBLIC        P36
  B:00B0H.7       PUBLIC        P37
  B:0028H.6       PUBLIC        Task1_Output
  B:0028H.7       PUBLIC        Task2_Output
  B:0020H.1       PUBLIC        Task1_OverTime_Reset
  B:0029H.0       PUBLIC        Task3_Output
  B:0020H.2       PUBLIC        Task2_OverTime_Reset
  B:0029H.1       PUBLIC        Task4_Output
  B:0020H.3       PUBLIC        Task3_OverTime_Reset
  B:0029H.2       PUBLIC        Task5_Output
  B:0020H.4       PUBLIC        Task4_OverTime_Reset
  B:0029H.3       PUBLIC        Task6_Output
  B:0020H.5       PUBLIC        Task5_OverTime_Reset
  B:0020H.6       PUBLIC        Task6_OverTime_Reset
  X:0329H         PUBLIC        Task1_OverTime_Count
  X:032DH         PUBLIC        Task2_OverTime_Count
  X:0331H         PUBLIC        Task1_CountTime
  X:0335H         PUBLIC        Task3_OverTime_Count
  X:0339H         PUBLIC        Task2_CountTime
  B:0029H.4       PUBLIC        Task1
  X:033DH         PUBLIC        Task4_OverTime_Count
  X:0341H         PUBLIC        Task3_CountTime
  B:0029H.5       PUBLIC        Task2
  X:0345H         PUBLIC        Task5_OverTime_Count
  X:0349H         PUBLIC        Task4_CountTime
  B:0029H.6       PUBLIC        Task3
  X:034DH         PUBLIC        Task6_OverTime_Count
  X:0351H         PUBLIC        Task5_CountTime
  B:0029H.7       PUBLIC        Task4
  D:0023H         PUBLIC        Pin_Trigger_Mode
BL51 BANKED LINKER/LOCATER V6.22.2.0                                                  08/13/2022  23:50:26  PAGE 120


  X:0355H         PUBLIC        Task6_CountTime
  X:0359H         PUBLIC        Task1_StartTime
  B:002AH.0       PUBLIC        Task5
  X:035BH         PUBLIC        Task2_StartTime
  B:002AH.1       PUBLIC        Task6
  X:035DH         PUBLIC        Task3_StartTime
  X:035FH         PUBLIC        Task4_StartTime
  X:0361H         PUBLIC        Pin10_Task_Number
  X:0362H         PUBLIC        Task5_StartTime
  X:0364H         PUBLIC        Pin20_Task_Number
  X:0365H         PUBLIC        Pin11_Task_Number
  X:0366H         PUBLIC        Task6_StartTime
  X:0368H         PUBLIC        Pin21_Task_Number
  X:0369H         PUBLIC        Pin12_Task_Number
  X:036AH         PUBLIC        Pin22_Task_Number
  X:036BH         PUBLIC        Pin13_Task_Number
  C:7738H         PUBLIC        Task_Input_Update
  X:036CH         PUBLIC        Task1_EndTime
  X:036EH         PUBLIC        Pin23_Task_Number
  X:036FH         PUBLIC        Pin14_Task_Number
  X:0370H         PUBLIC        Task2_EndTime
  X:0372H         PUBLIC        Pin24_Task_Number
  X:0373H         PUBLIC        Pin15_Task_Number
  X:0374H         PUBLIC        Task3_EndTime
  X:0376H         PUBLIC        Pin16_Task_Number
  X:0377H         PUBLIC        Task4_EndTime
  X:0379H         PUBLIC        Pin35_Task_Number
  X:037AH         PUBLIC        Pin17_Task_Number
  X:037BH         PUBLIC        Task5_EndTime
  X:037DH         PUBLIC        Task1_OffTime
  X:0381H         PUBLIC        Pin36_Task_Number
  X:0382H         PUBLIC        Task6_EndTime
  X:0384H         PUBLIC        Task2_OffTime
  X:0388H         PUBLIC        Pin37_Task_Number
  X:0389H         PUBLIC        Task3_OffTime
  X:038DH         PUBLIC        Task1_OverTime
  X:0391H         PUBLIC        Task4_OffTime
  X:0395H         PUBLIC        Task2_OverTime
  D:001CH         PUBLIC        Task_Number_Immediate
  X:0399H         PUBLIC        Task5_OffTime
  X:039DH         PUBLIC        Task3_OverTime
  X:03A1H         PUBLIC        Task6_OffTime
  X:03A5H         PUBLIC        Task4_OverTime
  X:03A9H         PUBLIC        Task5_OverTime
  X:03ADH         PUBLIC        Task6_OverTime
  D:001DH         PUBLIC        Task_Number
  B:002AH.2       PUBLIC        Task1_OnState
  B:002AH.3       PUBLIC        Task2_OnState
  B:002AH.4       PUBLIC        Task3_OnState
  B:002AH.5       PUBLIC        Task4_OnState
  B:002AH.6       PUBLIC        Task5_OnState
  B:002AH.7       PUBLIC        Task6_OnState
  B:0021H.0       PUBLIC        Pin10_Mode
  B:0022H.0       PUBLIC        Pin20_Mode
  B:0021H.1       PUBLIC        Pin11_Mode
  B:0022H.1       PUBLIC        Pin21_Mode
  B:0021H.2       PUBLIC        Pin12_Mode
BL51 BANKED LINKER/LOCATER V6.22.2.0                                                  08/13/2022  23:50:26  PAGE 121


  B:0022H.2       PUBLIC        Pin22_Mode
  B:0021H.3       PUBLIC        Pin13_Mode
  B:0022H.3       PUBLIC        Pin23_Mode
  B:0021H.4       PUBLIC        Pin14_Mode
  X:03B1H         PUBLIC        Task1_OnTime
  B:0022H.4       PUBLIC        Pin24_Mode
  B:0021H.5       PUBLIC        Pin15_Mode
  X:03B5H         PUBLIC        Task2_OnTime
  B:0021H.6       PUBLIC        Pin16_Mode
  X:03B9H         PUBLIC        Task3_OnTime
  B:0022H.5       PUBLIC        Pin35_Mode
  B:0021H.7       PUBLIC        Pin17_Mode
  X:03BDH         PUBLIC        Task4_OnTime
  B:0022H.6       PUBLIC        Pin36_Mode
  X:03C1H         PUBLIC        Task5_OnTime
  B:0022H.7       PUBLIC        Pin37_Mode
  D:00D0H         PUBLIC        PSW
  X:03C5H         PUBLIC        Task6_OnTime
  C:B4FFH         SYMBOL        Com01AF
  C:B4FFH         SYMBOL        L?0432
  C:B4FFH         SYMBOL        L?0433
  C:B502H         SYMBOL        L?0434
  C:B50AH         SYMBOL        L?0435
  C:B50AH         SYMBOL        L?0436
  C:B50DH         SYMBOL        L?0437
  C:B518H         SYMBOL        L?0438
  C:B51BH         SYMBOL        L?0439
  C:B51CH         SYMBOL        L?0440
  C:B52BH         SYMBOL        L?0441
  C:B52EH         SYMBOL        L?0442
  C:B53DH         SYMBOL        L?0443
  C:B540H         SYMBOL        L?0444
  C:B54FH         SYMBOL        L?0445
  C:B552H         SYMBOL        L?0446
  C:B561H         SYMBOL        L?0447
  C:B564H         SYMBOL        L?0448
  C:B573H         SYMBOL        L?0449
  C:B576H         SYMBOL        L?0450
  C:B577H         SYMBOL        L?0451
  C:B585H         SYMBOL        L?0452
  C:B588H         SYMBOL        L?0453
  C:B597H         SYMBOL        L?0454
  C:B59AH         SYMBOL        L?0455
  -------         PROC          COM01AF
  -------         ENDPROC       COM01AF
  -------         PROC          TASK_INPUT_UPDATE
  C:7738H         LINE#         288
  C:7738H         LINE#         289
  C:7738H         LINE#         295
  C:7743H         LINE#         296
  C:774EH         LINE#         297
  C:7759H         LINE#         298
  C:7764H         LINE#         299
  C:776FH         LINE#         300
  C:777AH         LINE#         302
  C:7785H         LINE#         303
  C:7790H         LINE#         304
BL51 BANKED LINKER/LOCATER V6.22.2.0                                                  08/13/2022  23:50:26  PAGE 122


  C:779BH         LINE#         305
  C:77A6H         LINE#         306
  C:77B1H         LINE#         308
  C:77BCH         LINE#         309
  C:77C7H         LINE#         310
  C:77D2H         LINE#         318
  C:77D8H         LINE#         320
  C:77DEH         LINE#         321
  C:77E0H         LINE#         322
  C:77E3H         LINE#         323
  C:77E9H         LINE#         324
  C:77EFH         LINE#         325
  C:77F1H         LINE#         326
  C:77F4H         LINE#         327
  C:77FAH         LINE#         328
  C:7800H         LINE#         329
  C:7802H         LINE#         330
  C:7805H         LINE#         331
  C:780BH         LINE#         332
  C:7811H         LINE#         333
  C:7813H         LINE#         334
  C:7816H         LINE#         335
  C:781CH         LINE#         336
  C:7822H         LINE#         337
  C:7824H         LINE#         338
  C:7827H         LINE#         339
  C:782DH         LINE#         340
  C:7833H         LINE#         341
  C:7835H         LINE#         342
  C:7837H         LINE#         343
  C:783DH         LINE#         344
  C:7843H         LINE#         345
  C:7845H         LINE#         346
  C:7847H         LINE#         347
  C:784DH         LINE#         348
  C:7853H         LINE#         349
  C:7855H         LINE#         350
  C:7857H         LINE#         351
  C:785DH         LINE#         352
  C:7863H         LINE#         353
  C:7865H         LINE#         354
  C:7867H         LINE#         355
  C:786DH         LINE#         356
  C:7873H         LINE#         357
  C:7875H         LINE#         358
  C:7877H         LINE#         359
  C:787DH         LINE#         360
  C:7883H         LINE#         361
  C:7885H         LINE#         362
  C:7887H         LINE#         363
  C:788DH         LINE#         364
  C:7893H         LINE#         365
  C:7895H         LINE#         366
  C:7897H         LINE#         367
  C:789DH         LINE#         368
  C:78A3H         LINE#         369
  C:78A5H         LINE#         370
BL51 BANKED LINKER/LOCATER V6.22.2.0                                                  08/13/2022  23:50:26  PAGE 123


  C:78A7H         LINE#         371
  C:78ADH         LINE#         372
  C:78B3H         LINE#         373
  C:78B5H         LINE#         374
  C:78B5H         LINE#         383
  C:78C1H         LINE#         384
  C:78C7H         LINE#         385
  C:78C9H         LINE#         386
  C:78CCH         LINE#         387
  C:78D8H         LINE#         388
  C:78DEH         LINE#         389
  C:78E0H         LINE#         390
  C:78E3H         LINE#         391
  C:78EFH         LINE#         392
  C:78F5H         LINE#         393
  C:78F7H         LINE#         394
  C:78FAH         LINE#         395
  C:7906H         LINE#         396
  C:790CH         LINE#         397
  C:790EH         LINE#         398
  C:7911H         LINE#         399
  C:791DH         LINE#         400
  C:7923H         LINE#         401
  C:7925H         LINE#         402
  C:7928H         LINE#         403
  C:7934H         LINE#         404
  C:793AH         LINE#         405
  C:793CH         LINE#         406
  C:793FH         LINE#         408
  C:794BH         LINE#         409
  C:7951H         LINE#         410
  C:7953H         LINE#         411
  C:7956H         LINE#         412
  C:7962H         LINE#         413
  C:7968H         LINE#         414
  C:796AH         LINE#         415
  C:796DH         LINE#         416
  C:7979H         LINE#         417
  C:797FH         LINE#         418
  C:7981H         LINE#         419
  C:7983H         LINE#         420
  C:798FH         LINE#         421
  C:7995H         LINE#         422
  C:7997H         LINE#         423
  C:7999H         LINE#         424
  C:79A5H         LINE#         425
  C:79ABH         LINE#         426
  C:79ADH         LINE#         427
  C:79AFH         LINE#         429
  C:79BBH         LINE#         430
  C:79C1H         LINE#         431
  C:79C3H         LINE#         432
  C:79C5H         LINE#         433
  C:79D1H         LINE#         434
  C:79D7H         LINE#         435
  C:79D9H         LINE#         436
  C:79DBH         LINE#         437
BL51 BANKED LINKER/LOCATER V6.22.2.0                                                  08/13/2022  23:50:26  PAGE 124


  C:79E7H         LINE#         438
  C:79EDH         LINE#         439
  C:79EFH         LINE#         440
  C:79EFH         LINE#         444
  C:79F7H         LINE#         445
  C:79FFH         LINE#         446
  C:7A07H         LINE#         447
  C:7A0FH         LINE#         448
  C:7A17H         LINE#         449
  C:7A1FH         LINE#         451
  C:7A27H         LINE#         452
  C:7A2FH         LINE#         453
  C:7A37H         LINE#         454
  C:7A3FH         LINE#         455
  C:7A47H         LINE#         457
  C:7A4FH         LINE#         458
  C:7A57H         LINE#         459
  C:7A5FH         LINE#         462
  C:7A75H         LINE#         463
  C:7A75H         LINE#         464
  C:7A75H         LINE#         465
  C:7A77H         LINE#         466
  C:7A77H         LINE#         467
  C:7A79H         LINE#         468
  C:7A79H         LINE#         469
  C:7A7BH         LINE#         470
  C:7A7BH         LINE#         471
  C:7A7DH         LINE#         472
  C:7A7DH         LINE#         473
  C:7A7FH         LINE#         474
  C:7A7FH         LINE#         475
  C:7A81H         LINE#         476
  C:7A81H         LINE#         477
  C:7A83H         LINE#         478
  C:7A83H         LINE#         479
  C:7A85H         LINE#         480
  C:7A85H         LINE#         481
  C:7A87H         LINE#         482
  C:7A87H         LINE#         483
  C:7A89H         LINE#         484
  C:7A89H         LINE#         485
  C:7A8BH         LINE#         486
  C:7A8EH         LINE#         487
  C:7A8EH         LINE#         488
  C:7A8EH         LINE#         491
  C:7AA4H         LINE#         492
  C:7AA4H         LINE#         493
  C:7AA4H         LINE#         494
  C:7AA6H         LINE#         495
  C:7AA6H         LINE#         496
  C:7AA8H         LINE#         497
  C:7AA8H         LINE#         498
  C:7AAAH         LINE#         499
  C:7AAAH         LINE#         500
  C:7AACH         LINE#         501
  C:7AACH         LINE#         502
  C:7AAEH         LINE#         503
BL51 BANKED LINKER/LOCATER V6.22.2.0                                                  08/13/2022  23:50:26  PAGE 125


  C:7AAEH         LINE#         504
  C:7AB0H         LINE#         505
  C:7AB0H         LINE#         506
  C:7AB2H         LINE#         507
  C:7AB2H         LINE#         508
  C:7AB4H         LINE#         509
  C:7AB4H         LINE#         510
  C:7AB6H         LINE#         511
  C:7AB6H         LINE#         512
  C:7AB8H         LINE#         513
  C:7AB8H         LINE#         514
  C:7ABAH         LINE#         515
  C:7ABDH         LINE#         516
  C:7ABDH         LINE#         518
  C:7ABDH         LINE#         519
  -------         ENDPROC       TASK_INPUT_UPDATE
  -------         PROC          TASK1_OUTPUT_UPDATE
  C:7ABEH         LINE#         527
  C:7ABEH         LINE#         528
  C:7ABEH         LINE#         529
  C:7AC4H         LINE#         530
  C:7AC4H         LINE#         531
  C:7ACEH         LINE#         532
  C:7ACEH         LINE#         533
  C:7ACEH         LINE#         534
  C:7AFAH         LINE#         535
  C:7AFAH         LINE#         536
  C:7B06H         LINE#         538
  C:7B09H         LINE#         539
  C:7B09H         LINE#         541
  C:7B17H         LINE#         542
  C:7B1DH         LINE#         543
  C:7B1FH         LINE#         544
  C:7B22H         LINE#         545
  C:7B29H         LINE#         546
  C:7B2BH         LINE#         547
  C:7B2BH         LINE#         549
  C:7B2EH         LINE#         551
  C:7B3CH         LINE#         552
  C:7B42H         LINE#         553
  C:7B44H         LINE#         554
  C:7B47H         LINE#         555
  C:7B4EH         LINE#         556
  C:7B50H         LINE#         557
  C:7B50H         LINE#         558
  C:7B50H         LINE#         560
  C:7B53H         LINE#         569
  C:7B61H         LINE#         571
  C:7B63H         LINE#         572
  C:7B6DH         LINE#         573
  C:7B77H         LINE#         574
  C:7B79H         LINE#         577
  C:7B8AH         LINE#         580
  C:7B8DH         LINE#         582
  C:7B97H         LINE#         585
  C:7B99H         LINE#         587
  C:7B9BH         LINE#         588
BL51 BANKED LINKER/LOCATER V6.22.2.0                                                  08/13/2022  23:50:26  PAGE 126


  C:7B9BH         LINE#         589
  C:7B9BH         LINE#         590
  C:7B9BH         LINE#         591
  C:7B9BH         LINE#         593
  C:7B9BH         LINE#         595
  C:7B9BH         LINE#         597
  C:7B9BH         LINE#         598
  C:7B9DH         LINE#         599
  C:7B9DH         LINE#         600
  C:7B9DH         LINE#         601
  C:7BA7H         LINE#         602
  C:7BB1H         LINE#         603
  C:7BB3H         LINE#         604
  C:7BB5H         LINE#         606
  C:7BB5H         LINE#         611
  C:7BBBH         LINE#         613
  C:7BC8H         LINE#         614
  C:7BD8H         LINE#         615
  C:7BE8H         LINE#         616
  C:7BF8H         LINE#         617
  C:7C08H         LINE#         618
  C:7C18H         LINE#         619
  C:7C28H         LINE#         620
  C:7C38H         LINE#         622
  C:7C48H         LINE#         623
  C:7C58H         LINE#         624
  C:7C68H         LINE#         625
  C:7C78H         LINE#         626
  C:7C88H         LINE#         628
  C:7C98H         LINE#         629
  C:7CA8H         LINE#         630
  C:7CBEH         LINE#         632
  C:7CBFH         LINE#         634
  C:7CCCH         LINE#         635
  C:7CDCH         LINE#         636
  C:7CECH         LINE#         637
  C:7CFCH         LINE#         638
  C:7D0CH         LINE#         639
  C:7D1CH         LINE#         640
  C:7D2CH         LINE#         641
  C:7D3CH         LINE#         643
  C:7D4CH         LINE#         644
  C:7D5CH         LINE#         645
  C:7D6CH         LINE#         646
  C:7D7CH         LINE#         647
  C:7D8CH         LINE#         649
  C:7D9CH         LINE#         650
  C:7DACH         LINE#         651
  C:7DBCH         LINE#         652
  C:7DBCH         LINE#         653
  -------         ENDPROC       TASK1_OUTPUT_UPDATE
  -------         PROC          TASK2_OUTPUT_UPDATE
  C:7DBDH         LINE#         655
  C:7DBDH         LINE#         656
  C:7DBDH         LINE#         657
  C:7DC3H         LINE#         658
  C:7DC3H         LINE#         659
BL51 BANKED LINKER/LOCATER V6.22.2.0                                                  08/13/2022  23:50:26  PAGE 127


  C:7DCDH         LINE#         660
  C:7DCDH         LINE#         661
  C:7DCDH         LINE#         662
  C:7DFDH         LINE#         663
  C:7DFDH         LINE#         664
  C:7E09H         LINE#         666
  C:7E0CH         LINE#         667
  C:7E0CH         LINE#         669
  C:7E1EH         LINE#         670
  C:7E24H         LINE#         671
  C:7E26H         LINE#         672
  C:7E29H         LINE#         673
  C:7E30H         LINE#         674
  C:7E32H         LINE#         675
  C:7E32H         LINE#         677
  C:7E35H         LINE#         679
  C:7E47H         LINE#         680
  C:7E4DH         LINE#         681
  C:7E4FH         LINE#         682
  C:7E51H         LINE#         683
  C:7E58H         LINE#         684
  C:7E5AH         LINE#         685
  C:7E5AH         LINE#         686
  C:7E5AH         LINE#         688
  C:7E5CH         LINE#         695
  C:7E6BH         LINE#         697
  C:7E6BH         LINE#         698
  C:7E6BH         LINE#         699
  C:7E6BH         LINE#         700
  C:7E6BH         LINE#         703
  C:7E7CH         LINE#         706
  C:7E7FH         LINE#         708
  C:7E89H         LINE#         711
  C:7E8BH         LINE#         713
  C:7E8DH         LINE#         714
  C:7E8DH         LINE#         715
  C:7E8DH         LINE#         716
  C:7E8DH         LINE#         717
  C:7E8DH         LINE#         718
  C:7E8DH         LINE#         720
  C:7E8DH         LINE#         721
  C:7E8DH         LINE#         722
  C:7E8FH         LINE#         723
  C:7E8FH         LINE#         724
  C:7E8FH         LINE#         725
  C:7E99H         LINE#         726
  C:7EA3H         LINE#         727
  C:7EA5H         LINE#         728
  C:7EA7H         LINE#         729
  C:7EA7H         LINE#         734
  C:7EADH         LINE#         735
  C:7EBAH         LINE#         736
  C:7ECAH         LINE#         737
  C:7EDAH         LINE#         738
  C:7EEAH         LINE#         739
  C:7EFAH         LINE#         740
  C:7F0AH         LINE#         741
BL51 BANKED LINKER/LOCATER V6.22.2.0                                                  08/13/2022  23:50:26  PAGE 128


  C:7F1AH         LINE#         742
  C:7F2AH         LINE#         744
  C:7F3AH         LINE#         745
  C:7F4AH         LINE#         746
  C:7F5AH         LINE#         747
  C:7F6AH         LINE#         748
  C:7F7AH         LINE#         750
  C:7F8AH         LINE#         751
  C:7F9AH         LINE#         752
  C:7FB0H         LINE#         754
  C:7FB1H         LINE#         756
  C:7FBEH         LINE#         757
  C:7FCEH         LINE#         758
  C:7FDEH         LINE#         759
  C:7FEEH         LINE#         760
  C:7FFEH         LINE#         761
  C:800EH         LINE#         762
  C:801EH         LINE#         763
  C:802EH         LINE#         765
  C:803EH         LINE#         766
  C:804EH         LINE#         767
  C:805EH         LINE#         768
  C:806EH         LINE#         769
  C:807EH         LINE#         771
  C:808EH         LINE#         772
  C:809EH         LINE#         773
  C:80AEH         LINE#         774
  C:80AEH         LINE#         775
  -------         ENDPROC       TASK2_OUTPUT_UPDATE
  -------         PROC          TASK3_OUTPUT_UPDATE
  C:80AFH         LINE#         778
  C:80AFH         LINE#         779
  C:80AFH         LINE#         780
  C:80B5H         LINE#         781
  C:80B5H         LINE#         782
  C:80BFH         LINE#         783
  C:80BFH         LINE#         784
  C:80BFH         LINE#         785
  C:80EFH         LINE#         786
  C:80EFH         LINE#         787
  C:80FBH         LINE#         789
  C:80FEH         LINE#         790
  C:80FEH         LINE#         792
  C:8110H         LINE#         793
  C:8116H         LINE#         794
  C:8118H         LINE#         795
  C:811BH         LINE#         796
  C:8122H         LINE#         797
  C:8124H         LINE#         798
  C:8124H         LINE#         800
  C:8127H         LINE#         802
  C:8139H         LINE#         803
  C:813FH         LINE#         804
  C:8141H         LINE#         805
  C:8143H         LINE#         806
  C:814AH         LINE#         807
  C:814CH         LINE#         808
BL51 BANKED LINKER/LOCATER V6.22.2.0                                                  08/13/2022  23:50:26  PAGE 129


  C:814CH         LINE#         809
  C:814CH         LINE#         811
  C:814EH         LINE#         818
  C:815DH         LINE#         820
  C:815DH         LINE#         821
  C:815DH         LINE#         822
  C:815DH         LINE#         823
  C:815DH         LINE#         826
  C:816EH         LINE#         829
  C:8171H         LINE#         831
  C:817BH         LINE#         834
  C:817DH         LINE#         836
  C:817FH         LINE#         837
  C:817FH         LINE#         838
  C:817FH         LINE#         839
  C:817FH         LINE#         840
  C:817FH         LINE#         841
  C:817FH         LINE#         843
  C:817FH         LINE#         844
  C:817FH         LINE#         845
  C:8181H         LINE#         846
  C:8181H         LINE#         847
  C:8181H         LINE#         848
  C:818BH         LINE#         849
  C:8195H         LINE#         850
  C:8197H         LINE#         851
  C:8199H         LINE#         852
  C:8199H         LINE#         857
  C:819FH         LINE#         858
  C:81ACH         LINE#         859
  C:81BCH         LINE#         860
  C:81CCH         LINE#         861
  C:81DCH         LINE#         862
  C:81ECH         LINE#         863
  C:81FCH         LINE#         864
  C:820CH         LINE#         865
  C:821CH         LINE#         867
  C:822CH         LINE#         868
  C:823CH         LINE#         869
  C:824CH         LINE#         870
  C:825CH         LINE#         871
  C:826CH         LINE#         873
  C:827CH         LINE#         874
  C:828CH         LINE#         875
  C:82A2H         LINE#         877
  C:82A3H         LINE#         879
  C:82B0H         LINE#         880
  C:82C0H         LINE#         881
  C:82D0H         LINE#         882
  C:82E0H         LINE#         883
  C:82F0H         LINE#         884
  C:8300H         LINE#         885
  C:8310H         LINE#         886
  C:8320H         LINE#         888
  C:8330H         LINE#         889
  C:8340H         LINE#         890
  C:8350H         LINE#         891
BL51 BANKED LINKER/LOCATER V6.22.2.0                                                  08/13/2022  23:50:26  PAGE 130


  C:8360H         LINE#         892
  C:8370H         LINE#         894
  C:8380H         LINE#         895
  C:8390H         LINE#         896
  C:83A0H         LINE#         897
  C:83A0H         LINE#         898
  -------         ENDPROC       TASK3_OUTPUT_UPDATE
  -------         PROC          TASK4_OUTPUT_UPDATE
  C:83A1H         LINE#         900
  C:83A1H         LINE#         901
  C:83A1H         LINE#         902
  C:83A7H         LINE#         903
  C:83A7H         LINE#         904
  C:83B1H         LINE#         905
  C:83B1H         LINE#         906
  C:83B1H         LINE#         907
  C:83E1H         LINE#         908
  C:83E1H         LINE#         909
  C:83EDH         LINE#         911
  C:83F0H         LINE#         912
  C:83F0H         LINE#         914
  C:8402H         LINE#         915
  C:8408H         LINE#         916
  C:840AH         LINE#         917
  C:840DH         LINE#         918
  C:8414H         LINE#         919
  C:8416H         LINE#         920
  C:8416H         LINE#         922
  C:8419H         LINE#         924
  C:842BH         LINE#         925
  C:8431H         LINE#         926
  C:8433H         LINE#         927
  C:8435H         LINE#         928
  C:843CH         LINE#         929
  C:843EH         LINE#         930
  C:843EH         LINE#         931
  C:843EH         LINE#         933
  C:8440H         LINE#         940
  C:844FH         LINE#         942
  C:844FH         LINE#         943
  C:844FH         LINE#         944
  C:844FH         LINE#         945
  C:844FH         LINE#         948
  C:8460H         LINE#         951
  C:8463H         LINE#         953
  C:846DH         LINE#         956
  C:846FH         LINE#         958
  C:8471H         LINE#         959
  C:8471H         LINE#         960
  C:8471H         LINE#         961
  C:8471H         LINE#         962
  C:8471H         LINE#         963
  C:8471H         LINE#         965
  C:8471H         LINE#         967
  C:8471H         LINE#         968
  C:8473H         LINE#         969
  C:8473H         LINE#         970
BL51 BANKED LINKER/LOCATER V6.22.2.0                                                  08/13/2022  23:50:26  PAGE 131


  C:8473H         LINE#         971
  C:847DH         LINE#         972
  C:8487H         LINE#         973
  C:8489H         LINE#         974
  C:848BH         LINE#         975
  C:848BH         LINE#         980
  C:8491H         LINE#         981
  C:849EH         LINE#         982
  C:84AEH         LINE#         983
  C:84BEH         LINE#         984
  C:84CEH         LINE#         985
  C:84DEH         LINE#         986
  C:84EEH         LINE#         987
  C:84FEH         LINE#         988
  C:850EH         LINE#         990
  C:851EH         LINE#         991
  C:852EH         LINE#         992
  C:853EH         LINE#         993
  C:854EH         LINE#         994
  C:855EH         LINE#         996
  C:856EH         LINE#         997
  C:857EH         LINE#         998
  C:8594H         LINE#         1000
  C:8595H         LINE#         1002
  C:85A2H         LINE#         1003
  C:85B2H         LINE#         1004
  C:85C2H         LINE#         1005
  C:85D2H         LINE#         1006
  C:85E2H         LINE#         1007
  C:85F2H         LINE#         1008
  C:8602H         LINE#         1009
  C:8612H         LINE#         1011
  C:8622H         LINE#         1012
  C:8632H         LINE#         1013
  C:8642H         LINE#         1014
  C:8652H         LINE#         1015
  C:8662H         LINE#         1017
  C:8672H         LINE#         1018
  C:8682H         LINE#         1019
  C:8692H         LINE#         1020
  C:8692H         LINE#         1021
  -------         ENDPROC       TASK4_OUTPUT_UPDATE
  -------         PROC          TASK5_OUTPUT_UPDATE
  C:8693H         LINE#         1024
  C:8693H         LINE#         1025
  C:8693H         LINE#         1026
  C:8699H         LINE#         1027
  C:8699H         LINE#         1028
  C:86A3H         LINE#         1029
  C:86A3H         LINE#         1030
  C:86A3H         LINE#         1031
  C:86C9H         LINE#         1032
  C:86C9H         LINE#         1033
  C:86D2H         LINE#         1035
  C:86D5H         LINE#         1036
  C:86D5H         LINE#         1038
  C:86E7H         LINE#         1039
BL51 BANKED LINKER/LOCATER V6.22.2.0                                                  08/13/2022  23:50:26  PAGE 132


  C:86F0H         LINE#         1040
  C:86F2H         LINE#         1041
  C:86F5H         LINE#         1042
  C:86FCH         LINE#         1043
  C:86FEH         LINE#         1044
  C:86FEH         LINE#         1046
  C:8701H         LINE#         1048
  C:8713H         LINE#         1049
  C:871CH         LINE#         1050
  C:871EH         LINE#         1051
  C:8720H         LINE#         1052
  C:8727H         LINE#         1053
  C:8729H         LINE#         1054
  C:8729H         LINE#         1055
  C:8729H         LINE#         1057
  C:872BH         LINE#         1064
  C:8737H         LINE#         1066
  C:8737H         LINE#         1067
  C:8737H         LINE#         1068
  C:8737H         LINE#         1069
  C:8737H         LINE#         1072
  C:8745H         LINE#         1075
  C:8748H         LINE#         1077
  C:8752H         LINE#         1080
  C:8754H         LINE#         1082
  C:8756H         LINE#         1083
  C:8756H         LINE#         1084
  C:8756H         LINE#         1085
  C:8756H         LINE#         1086
  C:8756H         LINE#         1087
  C:8756H         LINE#         1089
  C:8756H         LINE#         1090
  C:8756H         LINE#         1091
  C:8758H         LINE#         1092
  C:8758H         LINE#         1093
  C:8758H         LINE#         1094
  C:8762H         LINE#         1095
  C:876CH         LINE#         1096
  C:876EH         LINE#         1097
  C:8770H         LINE#         1098
  C:8770H         LINE#         1103
  C:8776H         LINE#         1104
  C:8783H         LINE#         1105
  C:8793H         LINE#         1106
  C:87A3H         LINE#         1107
  C:87B3H         LINE#         1108
  C:87C3H         LINE#         1109
  C:87D3H         LINE#         1110
  C:87E3H         LINE#         1111
  C:87F3H         LINE#         1113
  C:8803H         LINE#         1114
  C:8813H         LINE#         1115
  C:8823H         LINE#         1116
  C:8833H         LINE#         1117
  C:8843H         LINE#         1119
  C:8853H         LINE#         1120
  C:8863H         LINE#         1121
BL51 BANKED LINKER/LOCATER V6.22.2.0                                                  08/13/2022  23:50:26  PAGE 133


  C:8879H         LINE#         1123
  C:887AH         LINE#         1125
  C:8887H         LINE#         1126
  C:8897H         LINE#         1127
  C:88A7H         LINE#         1128
  C:88B7H         LINE#         1129
  C:88C7H         LINE#         1130
  C:88D7H         LINE#         1131
  C:88E7H         LINE#         1132
  C:88F7H         LINE#         1134
  C:8907H         LINE#         1135
  C:8917H         LINE#         1136
  C:8927H         LINE#         1137
  C:8937H         LINE#         1138
  C:8947H         LINE#         1140
  C:8957H         LINE#         1141
  C:8967H         LINE#         1142
  C:8977H         LINE#         1143
  C:8977H         LINE#         1144
  -------         ENDPROC       TASK5_OUTPUT_UPDATE
  -------         PROC          TASK6_OUTPUT_UPDATE
  C:8978H         LINE#         1146
  C:8978H         LINE#         1147
  C:8978H         LINE#         1148
  C:897EH         LINE#         1149
  C:897EH         LINE#         1150
  C:8988H         LINE#         1151
  C:8988H         LINE#         1152
  C:8988H         LINE#         1153
  C:89AEH         LINE#         1154
  C:89AEH         LINE#         1155
  C:89B7H         LINE#         1157
  C:89BAH         LINE#         1158
  C:89BAH         LINE#         1160
  C:89CCH         LINE#         1161
  C:89D2H         LINE#         1162
  C:89D4H         LINE#         1163
  C:89D7H         LINE#         1164
  C:89DEH         LINE#         1165
  C:89E0H         LINE#         1166
  C:89E0H         LINE#         1168
  C:89E3H         LINE#         1170
  C:89F5H         LINE#         1171
  C:89FBH         LINE#         1172
  C:89FDH         LINE#         1173
  C:89FFH         LINE#         1174
  C:8A06H         LINE#         1175
  C:8A08H         LINE#         1176
  C:8A08H         LINE#         1177
  C:8A08H         LINE#         1179
  C:8A0AH         LINE#         1186
  C:8A19H         LINE#         1188
  C:8A19H         LINE#         1189
  C:8A19H         LINE#         1190
  C:8A19H         LINE#         1191
  C:8A19H         LINE#         1194
  C:8A2AH         LINE#         1197
BL51 BANKED LINKER/LOCATER V6.22.2.0                                                  08/13/2022  23:50:26  PAGE 134


  C:8A2DH         LINE#         1199
  C:8A37H         LINE#         1202
  C:8A39H         LINE#         1204
  C:8A3BH         LINE#         1205
  C:8A3BH         LINE#         1206
  C:8A3BH         LINE#         1207
  C:8A3BH         LINE#         1208
  C:8A3BH         LINE#         1209
  C:8A3BH         LINE#         1211
  C:8A3BH         LINE#         1212
  C:8A3BH         LINE#         1213
  C:8A3DH         LINE#         1214
  C:8A3DH         LINE#         1215
  C:8A3DH         LINE#         1216
  C:8A47H         LINE#         1217
  C:8A51H         LINE#         1218
  C:8A53H         LINE#         1219
  C:8A55H         LINE#         1220
  C:8A55H         LINE#         1225
  C:8A5BH         LINE#         1226
  C:8A68H         LINE#         1227
  C:8A78H         LINE#         1228
  C:8A88H         LINE#         1229
  C:8A98H         LINE#         1230
  C:8AA8H         LINE#         1231
  C:8AB8H         LINE#         1232
  C:8AC8H         LINE#         1233
  C:8AD8H         LINE#         1235
  C:8AE8H         LINE#         1236
  C:8AF8H         LINE#         1237
  C:8B08H         LINE#         1238
  C:8B18H         LINE#         1239
  C:8B28H         LINE#         1241
  C:8B38H         LINE#         1242
  C:8B48H         LINE#         1243
  C:8B5EH         LINE#         1245
  C:8B5FH         LINE#         1247
  C:8B6CH         LINE#         1248
  C:8B7CH         LINE#         1249
  C:8B8CH         LINE#         1250
  C:8B9CH         LINE#         1251
  C:8BACH         LINE#         1252
  C:8BBCH         LINE#         1253
  C:8BCCH         LINE#         1254
  C:8BDCH         LINE#         1256
  C:8BECH         LINE#         1257
  C:8BFCH         LINE#         1258
  C:8C0CH         LINE#         1259
  C:8C1CH         LINE#         1260
  C:8C2CH         LINE#         1262
  C:8C3CH         LINE#         1263
  C:8C4CH         LINE#         1264
  C:8C5CH         LINE#         1265
  C:8C5CH         LINE#         1266
  -------         ENDPROC       TASK6_OUTPUT_UPDATE
  -------         ENDMOD        RELAY

BL51 BANKED LINKER/LOCATER V6.22.2.0                                                  08/13/2022  23:50:26  PAGE 135


  -------         MODULE        EEPROM
  C:0000H         SYMBOL        _ICE_DUMMY_
  D:0080H         PUBLIC        P0
  D:0090H         PUBLIC        P1
  D:00A0H         PUBLIC        P2
  D:00B0H         PUBLIC        P3
  C:C022H         PUBLIC        _IapEraseSector
  D:00C0H         PUBLIC        P4
  D:00C8H         PUBLIC        P5
  D:00A8H         PUBLIC        IE
  C:BFAEH         PUBLIC        _IapProgramByte
  D:00C5H         PUBLIC        IAP_CMD
  D:00B8H         PUBLIC        IP
  C:C015H         PUBLIC        IapIdle
  D:00C3H         PUBLIC        IAP_ADDRH
  D:00C4H         PUBLIC        IAP_ADDRL
  D:00D8H         PUBLIC        CCON
  C:BFD1H         PUBLIC        _IapReadByte
  D:0098H         PUBLIC        SCON
  D:0088H         PUBLIC        TCON
  D:00C7H         PUBLIC        IAP_CONTR
  D:00C2H         PUBLIC        IAP_DATA
  D:00C6H         PUBLIC        IAP_TRIG
  D:00D0H         PUBLIC        PSW
  C:C05CH         SYMBOL        Com0005
  C:C05CH         SYMBOL        L?0006
  C:C060H         SYMBOL        L?0007
  -------         PROC          COM0005
  -------         ENDPROC       COM0005
  -------         PROC          IAPIDLE
  C:C015H         LINE#         12
  C:C015H         LINE#         13
  C:C015H         LINE#         14
  C:C018H         LINE#         15
  C:C01AH         LINE#         16
  C:C01CH         LINE#         17
  C:C01FH         LINE#         18
  C:C021H         LINE#         19
  -------         ENDPROC       IAPIDLE
  -------         PROC          _IAPREADBYTE
  D:0006H         SYMBOL        addr
  -------         DO            
  D:0007H         SYMBOL        dat
  -------         ENDDO         
  C:BFD1H         LINE#         27
  C:BFD1H         LINE#         28
  C:BFD1H         LINE#         31
  C:BFD4H         LINE#         32
  C:BFD7H         LINE#         33
  C:BFD7H         LINE#         34
  C:BFD7H         LINE#         35
  C:BFD7H         LINE#         36
  C:BFDAH         LINE#         37
  C:BFDBH         LINE#         38
  C:BFDDH         LINE#         39
  -------         ENDPROC       _IAPREADBYTE
  -------         PROC          _IAPPROGRAMBYTE
BL51 BANKED LINKER/LOCATER V6.22.2.0                                                  08/13/2022  23:50:26  PAGE 136


  D:0006H         SYMBOL        addr
  D:0005H         SYMBOL        dat
  C:BFAEH         LINE#         50
  C:BFAEH         LINE#         51
  C:BFAEH         LINE#         52
  C:BFB1H         LINE#         53
  C:BFB4H         LINE#         54
  C:BFB6H         LINE#         55
  C:BFB8H         LINE#         56
  C:BFBAH         LINE#         57
  C:BFBAH         LINE#         58
  C:BFBDH         LINE#         59
  C:BFBEH         LINE#         60
  -------         ENDPROC       _IAPPROGRAMBYTE
  -------         PROC          _IAPERASESECTOR
  D:0006H         SYMBOL        addr
  C:C022H         LINE#         70
  C:C022H         LINE#         71
  C:C022H         LINE#         72
  C:C025H         LINE#         73
  C:C028H         LINE#         74
  C:C028H         LINE#         75
  C:C028H         LINE#         76
  C:C028H         LINE#         77
  C:C02BH         LINE#         78
  C:C02CH         LINE#         79
  -------         ENDPROC       _IAPERASESECTOR
  -------         ENDMOD        EEPROM

  -------         MODULE        EC11
  C:0000H         SYMBOL        _ICE_DUMMY_
  D:0080H         PUBLIC        P0
  D:0090H         PUBLIC        P1
  D:00A0H         PUBLIC        P2
  D:00B0H         PUBLIC        P3
  D:00C0H         PUBLIC        P4
  D:00C8H         PUBLIC        P5
  B:00B0H.3       PUBLIC        EC11_A
  B:00B0H.4       PUBLIC        EC11_B
  D:00A8H         PUBLIC        IE
  D:00B8H         PUBLIC        IP
  D:00D8H         PUBLIC        CCON
  D:0098H         PUBLIC        SCON
  D:0088H         PUBLIC        TCON
  D:004CH         PUBLIC        EC11_Value
  D:004DH         PUBLIC        EC11_State
  C:A3ABH         PUBLIC        EC11_Scan
  D:004EH         PUBLIC        EC11_Count
  D:004FH         PUBLIC        EC11_Rate
  C:BEA5H         PUBLIC        EC11_Init
  B:002BH.4       PUBLIC        PinA_LastState
  B:002BH.5       PUBLIC        PinB_LastState
  B:00B0H.2       PUBLIC        EC11_Key
  D:0050H         PUBLIC        TimeCounter
  D:00D0H         PUBLIC        PSW
  -------         PROC          EC11_INIT
  C:BEA5H         LINE#         30
BL51 BANKED LINKER/LOCATER V6.22.2.0                                                  08/13/2022  23:50:26  PAGE 137


  C:BEA5H         LINE#         31
  C:BEA7H         LINE#         32
  C:BEA9H         LINE#         33
  C:BEABH         LINE#         35
  C:BEADH         LINE#         36
  C:BEAFH         LINE#         38
  C:BEB2H         LINE#         39
  C:BEB5H         LINE#         40
  C:BEB7H         LINE#         41
  C:BEB9H         LINE#         43
  C:BEBBH         LINE#         50
  -------         ENDPROC       EC11_INIT
  -------         PROC          EC11_SCAN
  -------         DO            
  D:004AH         SYMBOL        key_press_time
  -------         ENDDO         
  C:A3ABH         LINE#         71
  C:A3ABH         LINE#         72
  C:A3ABH         LINE#         78
  C:A3AEH         LINE#         79
  C:A3AEH         LINE#         81
  C:A3C7H         LINE#         84
  C:A3D3H         LINE#         88
  C:A3D9H         LINE#         89
  C:A3D9H         LINE#         90
  C:A3D9H         LINE#         93
  C:A3E1H         LINE#         94
  C:A3E3H         LINE#         95
  C:A3E6H         LINE#         98
  C:A3EEH         LINE#         99
  C:A3F0H         LINE#         101
  C:A3F0H         LINE#         102
  C:A3F3H         LINE#         103
  C:A3F6H         LINE#         104
  C:A3F6H         LINE#         106
  C:A3F8H         LINE#         109
  C:A40DH         LINE#         113
  C:A414H         LINE#         114
  C:A417H         LINE#         115
  C:A419H         LINE#         118
  C:A421H         LINE#         119
  C:A423H         LINE#         120
  C:A425H         LINE#         123
  C:A42DH         LINE#         125
  C:A430H         LINE#         127
  C:A430H         LINE#         130
  C:A433H         LINE#         131
  C:A433H         LINE#         132
  C:A438H         LINE#         133
  C:A438H         LINE#         143
  C:A440H         LINE#         144
  C:A442H         LINE#         145
  C:A444H         LINE#         146
  C:A447H         LINE#         147
  C:A447H         LINE#         151
  C:A452H         LINE#         152
  C:A455H         LINE#         153
BL51 BANKED LINKER/LOCATER V6.22.2.0                                                  08/13/2022  23:50:26  PAGE 138


  C:A457H         LINE#         154
  C:A45AH         LINE#         155
  C:A45AH         LINE#         160
  C:A463H         LINE#         161
  C:A46BH         LINE#         162
  C:A46EH         LINE#         163
  C:A46EH         LINE#         164
  C:A46EH         LINE#         169
  C:A479H         LINE#         170
  C:A47CH         LINE#         171
  C:A47FH         LINE#         172
  C:A481H         LINE#         173
  C:A484H         LINE#         175
  C:A486H         LINE#         176
  C:A489H         LINE#         177
  C:A489H         LINE#         180
  C:A48DH         LINE#         181
  C:A491H         LINE#         183
  C:A497H         LINE#         184
  C:A49DH         LINE#         185
  C:A49EH         LINE#         186
  C:A4A1H         LINE#         187
  C:A4A1H         LINE#         192
  -------         ENDPROC       EC11_SCAN
  -------         ENDMOD        EC11

  -------         MODULE        BUZZER
  C:0000H         SYMBOL        _ICE_DUMMY_
  D:0080H         PUBLIC        P0
  D:0090H         PUBLIC        P1
  D:00A0H         PUBLIC        P2
  D:00B0H         PUBLIC        P3
  D:00C0H         PUBLIC        P4
  D:00C8H         PUBLIC        P5
  B:00C0H.5       PUBLIC        Buzzer
  D:00A8H         PUBLIC        IE
  D:00B8H         PUBLIC        IP
  D:00D8H         PUBLIC        CCON
  D:0098H         PUBLIC        SCON
  D:0088H         PUBLIC        TCON
  B:00A8H.3       PUBLIC        ET1
  D:0051H         PUBLIC        Number
  C:BA01H         PUBLIC        Buzzer_Key_Beep
  C:C08EH         PUBLIC        Buzzer_Open
  D:00D0H         PUBLIC        PSW
  C:C067H         PUBLIC        Buzzer_Init
  -------         PROC          BUZZER_INIT
  C:C067H         LINE#         7
  C:C067H         LINE#         8
  C:C067H         LINE#         9
  C:C06AH         LINE#         10
  C:C06CH         LINE#         11
  C:C06EH         LINE#         12
  -------         ENDPROC       BUZZER_INIT
  -------         PROC          BUZZER_OPEN
  C:C08EH         LINE#         14
  C:C08EH         LINE#         15
BL51 BANKED LINKER/LOCATER V6.22.2.0                                                  08/13/2022  23:50:26  PAGE 139


  C:C08EH         LINE#         16
  C:C090H         LINE#         17
  -------         ENDPROC       BUZZER_OPEN
  -------         PROC          BUZZER_KEY_BEEP
  C:BA01H         LINE#         26
  C:BA1EH         LINE#         28
  C:BA21H         LINE#         29
  C:BA2EH         LINE#         30
  C:BA30H         LINE#         31
  C:BA32H         LINE#         32
  C:BA35H         LINE#         33
  C:BA35H         LINE#         34
  -------         ENDPROC       BUZZER_KEY_BEEP
  -------         ENDMOD        BUZZER

  -------         MODULE        ?C?SCDIV
  C:8C5DH         PUBLIC        ?C?SCDIV
  -------         ENDMOD        ?C?SCDIV

  -------         MODULE        ?C?CLDPTR
  C:8C7FH         PUBLIC        ?C?CLDPTR
  -------         ENDMOD        ?C?CLDPTR

  -------         MODULE        ?C?CLDOPTR
  C:8C98H         PUBLIC        ?C?CLDOPTR
  -------         ENDMOD        ?C?CLDOPTR

  -------         MODULE        ?C?CSTOPTR
  C:8CC5H         PUBLIC        ?C?CSTOPTR
  -------         ENDMOD        ?C?CSTOPTR

  -------         MODULE        ?C?IMUL
  C:8CE7H         PUBLIC        ?C?IMUL
  -------         ENDMOD        ?C?IMUL

  -------         MODULE        ?C?SIDIV
  C:8CF9H         PUBLIC        ?C?SIDIV
  -------         ENDMOD        ?C?SIDIV

  -------         MODULE        ?C?LMUL
  C:8D2FH         PUBLIC        ?C?LMUL
  -------         ENDMOD        ?C?LMUL

  -------         MODULE        ?C?SLDIV
  C:BAE2H         PUBLIC        ?C?SLDIV
  -------         ENDMOD        ?C?SLDIV

  -------         MODULE        ?C?SLCMP
  C:8D7EH         PUBLIC        ?C?SLCMP
  -------         ENDMOD        ?C?SLCMP

  -------         MODULE        ?C?ULCMP
  C:8D94H         PUBLIC        ?C?ULCMP
  -------         ENDMOD        ?C?ULCMP

  -------         MODULE        ?C?SLSHR
  C:8DA5H         PUBLIC        ?C?SLSHR
BL51 BANKED LINKER/LOCATER V6.22.2.0                                                  08/13/2022  23:50:26  PAGE 140


  -------         ENDMOD        ?C?SLSHR

  -------         MODULE        ?C?LSHL
  C:8DB9H         PUBLIC        ?C?LSHL
  -------         ENDMOD        ?C?LSHL

  -------         MODULE        ?C?LSTXDATA
  C:8DCCH         PUBLIC        ?C?LSTXDATA
  -------         ENDMOD        ?C?LSTXDATA

  -------         MODULE        ?C?LSTKXDATA
  C:8DD8H         PUBLIC        ?C?LSTKXDATA
  -------         ENDMOD        ?C?LSTKXDATA

  -------         MODULE        ?C?ICALL
  C:8E09H         PUBLIC        ?C?ICALL
  C:8E0DH         PUBLIC        ?C?ICALL2
  -------         ENDMOD        ?C?ICALL

  -------         MODULE        ?C?UIDIV
  C:8E0FH         PUBLIC        ?C?UIDIV
  -------         ENDMOD        ?C?UIDIV

  -------         MODULE        ?C?ULDIV
  C:8EA0H         PUBLIC        ?C?ULDIV
  -------         ENDMOD        ?C?ULDIV

Program Size: data=186.7 xdata=986 code=49296
LINK/LOCATE RUN COMPLETE.  0 WARNING(S),  0 ERROR(S)
